

Microchip MPLAB XC8 Assembler V2.32 build 20210201212658 
                                                                                               Sun Aug 01 16:06:51 2021

Microchip MPLAB XC8 C Compiler v2.32 (Free license) build 20210201212658 Og1 
     1                           	processor	18F4520
     2                           	fnconf	rparam,??,?,0
     3                           	pagewidth 120
     4                           	opt	flic
     5                           	psect	idataCOMRAM,global,class=CODE,delta=1,noexec
     6                           	psect	idataBANK1,global,class=CODE,delta=1,noexec
     7                           	psect	smallconst,global,reloc=2,class=SMALLCONST,delta=1,noexec
     8                           	psect	cinit,global,reloc=2,class=CODE,delta=1
     9                           	psect	bssCOMRAM,global,class=COMRAM,space=1,delta=1,lowdata,noexec
    10                           	psect	dataCOMRAM,global,class=COMRAM,space=1,delta=1,lowdata,noexec
    11                           	psect	dataBANK1,global,class=BANK1,space=1,delta=1,lowdata,noexec
    12                           	psect	cstackBANK0,global,class=BANK0,space=1,delta=1,lowdata,noexec
    13                           	psect	cstackCOMRAM,global,class=COMRAM,space=1,delta=1,lowdata,noexec
    14                           	psect	text0,global,reloc=2,class=CODE,delta=1
    15                           	psect	text1,global,reloc=2,class=CODE,delta=1
    16                           	psect	text2,global,reloc=2,class=CODE,delta=1
    17                           	psect	text3,global,reloc=2,class=CODE,delta=1
    18                           	psect	text4,global,reloc=2,class=CODE,delta=1
    19                           	psect	text5,global,reloc=2,class=CODE,delta=1
    20                           	psect	text6,global,reloc=2,class=CODE,delta=1,group=1
    21                           	psect	text7,global,reloc=2,class=CODE,delta=1
    22                           	psect	text8,global,reloc=2,class=CODE,delta=1
    23                           	psect	text9,global,reloc=2,class=CODE,delta=1,group=1
    24                           	psect	text10,global,reloc=2,class=CODE,delta=1
    25                           	psect	text11,global,reloc=2,class=CODE,delta=1
    26                           	psect	text12,global,reloc=2,class=CODE,delta=1
    27                           	psect	text13,global,reloc=2,class=CODE,delta=1
    28                           	psect	text14,global,reloc=2,class=CODE,delta=1
    29                           	psect	text15,global,reloc=2,class=CODE,delta=1
    30                           	psect	text16,global,reloc=2,class=CODE,delta=1
    31                           	psect	text17,global,reloc=2,class=CODE,delta=1
    32                           	psect	text18,global,reloc=2,class=CODE,delta=1,group=1
    33                           	psect	text19,global,reloc=2,class=CODE,delta=1,group=1
    34                           	psect	text20,global,reloc=2,class=CODE,delta=1
    35                           	psect	text21,global,reloc=2,class=CODE,delta=1
    36                           	psect	text22,global,reloc=2,class=CODE,delta=1
    37                           	psect	text23,global,reloc=2,class=CODE,delta=1
    38                           	psect	text24,global,reloc=2,class=CODE,delta=1
    39                           	psect	text25,global,reloc=2,class=CODE,delta=1
    40                           	psect	text26,global,reloc=2,class=CODE,delta=1
    41                           	psect	text27,global,reloc=2,class=CODE,delta=1
    42                           	psect	text28,global,reloc=2,class=CODE,delta=1,group=1
    43                           	psect	text29,global,reloc=2,class=CODE,delta=1,group=1
    44                           	psect	text30,global,reloc=2,class=CODE,delta=1
    45                           	psect	intsave_regs,global,class=BIGRAM,space=1,delta=1,noexec
    46                           	psect	rparam,global,class=COMRAM,space=1,delta=1,noexec
    47                           	psect	idloc,global,abs,ovrld,class=IDLOC,space=5,delta=1,noexec
    48                           	psect	config,global,abs,ovrld,class=CONFIG,space=4,delta=1,noexec
    49  0000                     
    50                           ; Version 2.32
    51                           ; Generated 02/02/2021 GMT
    52                           ; 
    53                           ; Copyright © 2021, Microchip Technology Inc. and its subsidiaries ("Microchip")
    54                           ; All rights reserved.
    55                           ; 
    56                           ; This software is developed by Microchip Technology Inc. and its subsidiaries ("Microch
      +                          ip").
    57                           ; 
    58                           ; Redistribution and use in source and binary forms, with or without modification, are
    59                           ; permitted provided that the following conditions are met:
    60                           ; 
    61                           ;     1. Redistributions of source code must retain the above copyright notice, this lis
      +                          t of
    62                           ;        conditions and the following disclaimer.
    63                           ; 
    64                           ;     2. Redistributions in binary form must reproduce the above copyright notice, this 
      +                          list
    65                           ;        of conditions and the following disclaimer in the documentation and/or other
    66                           ;        materials provided with the distribution. Publication is not required when
    67                           ;        this file is used in an embedded application.
    68                           ; 
    69                           ;     3. Microchip's name may not be used to endorse or promote products derived from th
      +                          is
    70                           ;        software without specific prior written permission.
    71                           ; 
    72                           ; THIS SOFTWARE IS PROVIDED BY MICROCHIP "AS IS" AND ANY EXPRESS OR IMPLIED WARRANTIES,
    73                           ; INCLUDING, BUT NOT LIMITED TO, THE IMPLIED WARRANTIES OF MERCHANTABILITY AND FITNESS F
      +                          OR
    74                           ; PURPOSE ARE DISCLAIMED.  IN NO EVENT SHALL MICROCHIP BE LIABLE FOR ANY DIRECT, INDIREC
      +                          T,
    75                           ; INCIDENTAL, SPECIAL, EXEMPLARY, OR CONSEQUENTIAL DAMAGES (INCLUDING BUT NOT LIMITED TO
    76                           ; PROCUREMENT OF SUBSTITUTE GOODS OR SERVICES; LOSS OF USE, DATA OR PROFITS; OR BUSINESS
    77                           ; INTERRUPTION) HOWSOEVER CAUSED AND ON ANY THEORY OF LIABILITY, WHETHER IN CONTRACT, ST
      +                          RICT
    78                           ; LIABILITY, OR TORT (INCLUDING NEGLIGENCE OR OTHERWISE) ARISING IN ANY WAY OUT OF THE U
      +                          SE OF
    79                           ; THIS SOFTWARE, EVEN IF ADVISED OF THE POSSIBILITY OF SUCH DAMAGE.
    80                           ; 
    81                           ; 
    82                           ; Code-generator required, PIC18F4520 Definitions
    83                           ; 
    84                           ; SFR Addresses
    85  0000                     
    86                           	psect	idataCOMRAM
    87  0024DF                     __pidataCOMRAM:
    88                           	callstack 0
    89                           
    90                           ;initializer for main@F2608
    91  0024DF  0F                 	db	15
    92  0024E0  08                 	db	8
    93  0024E1  09                 	db	9
    94  0024E2  08                 	db	8
    95  0024E3  0A                 	db	10
    96  0024E4  0B                 	db	11
    97  0024E5  08                 	db	8
    98  0024E6  0F                 	db	15
    99  0024E7  1E                 	db	30
   100  0024E8  02                 	db	2
   101  0024E9  0A                 	db	10
   102  0024EA  02                 	db	2
   103  0024EB  0A                 	db	10
   104  0024EC  1A                 	db	26
   105  0024ED  02                 	db	2
   106  0024EE  1E                 	db	30
   107  0024EF  1F                 	db	31
   108  0024F0  0F                 	db	15
   109  0024F1  07                 	db	7
   110  0024F2  03                 	db	3
   111  0024F3  01                 	db	1
   112  0024F4  00                 	db	0
   113  0024F5  00                 	db	0
   114  0024F6  00                 	db	0
   115  0024F7  1F                 	db	31
   116  0024F8  1E                 	db	30
   117  0024F9  1C                 	db	28
   118  0024FA  18                 	db	24
   119  0024FB  10                 	db	16
   120  0024FC  00                 	db	0
   121  0024FD  00                 	db	0
   122  0024FE  00                 	db	0
   123  0024FF  00                 	db	0
   124  002500  00                 	db	0
   125  002501  00                 	db	0
   126  002502  00                 	db	0
   127  002503  00                 	db	0
   128  002504  00                 	db	0
   129  002505  00                 	db	0
   130  002506  00                 	db	0
   131  002507  00                 	db	0
   132  002508  00                 	db	0
   133  002509  00                 	db	0
   134  00250A  00                 	db	0
   135  00250B  00                 	db	0
   136  00250C  00                 	db	0
   137  00250D  00                 	db	0
   138  00250E  00                 	db	0
   139                           
   140                           	psect	idataBANK1
   141  0024A8                     __pidataBANK1:
   142                           	callstack 0
   143                           
   144                           ;initializer for main@F2602
   145  0024A8  45                 	db	69
   146  0024A9  73                 	db	115
   147  0024AA  63                 	db	99
   148  0024AB  6F                 	db	111
   149  0024AC  6C                 	db	108
   150  0024AD  68                 	db	104
   151  0024AE  61                 	db	97
   152  0024AF  20                 	db	32
   153  0024B0  6F                 	db	111
   154  0024B1  20                 	db	32
   155  0024B2  73                 	db	115
   156  0024B3  61                 	db	97
   157  0024B4  62                 	db	98
   158  0024B5  6F                 	db	111
   159  0024B6  72                 	db	114
   160  0024B7  3A                 	db	58
   161  0024B8  5C                 	db	92
   162  0024B9  6E                 	db	110
   163  0024BA  31                 	db	49
   164  0024BB  2D                 	db	45
   165  0024BC  42                 	db	66
   166  0024BD  61                 	db	97
   167  0024BE  75                 	db	117
   168  0024BF  6E                 	db	110
   169  0024C0  69                 	db	105
   170  0024C1  6C                 	db	108
   171  0024C2  68                 	db	104
   172  0024C3  61                 	db	97
   173  0024C4  5C                 	db	92
   174  0024C5  6E                 	db	110
   175  0024C6  32                 	db	50
   176  0024C7  2D                 	db	45
   177  0024C8  43                 	db	67
   178  0024C9  68                 	db	104
   179  0024CA  6F                 	db	111
   180  0024CB  63                 	db	99
   181  0024CC  6F                 	db	111
   182  0024CD  6C                 	db	108
   183  0024CE  61                 	db	97
   184  0024CF  74                 	db	116
   185  0024D0  65                 	db	101
   186  0024D1  5C                 	db	92
   187  0024D2  6E                 	db	110
   188  0024D3  33                 	db	51
   189  0024D4  2D                 	db	45
   190  0024D5  4D                 	db	77
   191  0024D6  69                 	db	105
   192  0024D7  73                 	db	115
   193  0024D8  74                 	db	116
   194  0024D9  61                 	db	97
   195  0024DA  00                 	db	0
   196  0024DB  00                 	db	0
   197  0024DC  00                 	db	0
   198  0024DD  00                 	db	0
   199  0024DE  00                 	db	0
   200                           
   201                           	psect	smallconst
   202  000600                     __psmallconst:
   203                           	callstack 0
   204  000600  00                 	db	0
   205  000601                     _valor@ssd$F167:
   206                           	callstack 0
   207  000601  3F                 	db	63
   208  000602  06                 	db	6
   209  000603  5B                 	db	91
   210  000604  4F                 	db	79
   211  000605  66                 	db	102
   212  000606  6D                 	db	109
   213  000607  7D                 	db	125
   214  000608  07                 	db	7
   215  000609  7F                 	db	127
   216  00060A  6F                 	db	111
   217  00060B  77                 	db	119
   218  00060C  7C                 	db	124
   219  00060D  39                 	db	57
   220  00060E  5E                 	db	94
   221  00060F  79                 	db	121
   222  000610  71                 	db	113
   223  000611                     __end_of_valor@ssd$F167:
   224                           	callstack 0
   225  0000                     _T2CON	set	4042
   226  0000                     _CCP1CON	set	4029
   227  0000                     _CCPR1L	set	4030
   228  0000                     _PR2	set	4043
   229  0000                     _ADRESL	set	4035
   230  0000                     _ADRESH	set	4036
   231  0000                     _ADCON0bits	set	4034
   232  0000                     _ADCON2	set	4032
   233  0000                     _ADCON1	set	4033
   234  0000                     _ADCON0	set	4034
   235  0000                     _PORTEbits	set	3972
   236  0000                     _TRISEbits	set	3990
   237  0000                     _TRISCbits	set	3988
   238  0000                     _PORTCbits	set	3970
   239  0000                     _TRISE	set	3990
   240  0000                     _TRISD	set	3989
   241  0000                     _TRISC	set	3988
   242  0000                     _TRISB	set	3987
   243  0000                     _TRISA	set	3986
   244  0000                     _PORTE	set	3972
   245  0000                     _PORTD	set	3971
   246  0000                     _PORTC	set	3970
   247  0000                     _PORTB	set	3969
   248  0000                     _PORTA	set	3968
   249  000611                     STR_5:
   250  000611  5B                 	db	91	;'['
   251  000612  30                 	db	48	;'0'
   252  000613  25                 	db	37
   253  000614  5D                 	db	93	;']'
   254  000615  2D                 	db	45
   255  000616  2D                 	db	45
   256  000617  2D                 	db	45
   257  000618  2D                 	db	45
   258  000619  2D                 	db	45
   259  00061A  2D                 	db	45
   260  00061B  2D                 	db	45
   261  00061C  2D                 	db	45
   262  00061D  5B                 	db	91	;'['
   263  00061E  35                 	db	53	;'5'
   264  00061F  25                 	db	37
   265  000620  5D                 	db	93	;']'
   266  000621  00                 	db	0
   267  000622                     STR_10:
   268  000622  65                 	db	101	;'e'
   269  000623  6D                 	db	109	;'m'
   270  000624  20                 	db	32
   271  000625  69                 	db	105	;'i'
   272  000626  6E                 	db	110	;'n'
   273  000627  73                 	db	115	;'s'
   274  000628  74                 	db	116	;'t'
   275  000629  61                 	db	97	;'a'
   276  00062A  6E                 	db	110	;'n'
   277  00062B  74                 	db	116	;'t'
   278  00062C  65                 	db	101	;'e'
   279  00062D  73                 	db	115	;'s'
   280  00062E  2E                 	db	46
   281  00062F  2E                 	db	46
   282  000630  2E                 	db	46
   283  000631  00                 	db	0
   284  000632                     STR_12:
   285  000632  50                 	db	80	;'P'
   286  000633  52                 	db	82	;'R'
   287  000634  45                 	db	69	;'E'
   288  000635  53                 	db	83	;'S'
   289  000636  53                 	db	83	;'S'
   290  000637  2E                 	db	46
   291  000638  5B                 	db	91	;'['
   292  000639  52                 	db	82	;'R'
   293  00063A  45                 	db	69	;'E'
   294  00063B  53                 	db	83	;'S'
   295  00063C  45                 	db	69	;'E'
   296  00063D  54                 	db	84	;'T'
   297  00063E  5D                 	db	93	;']'
   298  00063F  00                 	db	0
   299  000640                     STR_9:
   300  000640  45                 	db	69	;'E'
   301  000641  73                 	db	115	;'s'
   302  000642  74                 	db	116	;'t'
   303  000643  61                 	db	97	;'a'
   304  000644  72                 	db	114	;'r'
   305  000645  61                 	db	97	;'a'
   306  000646  20                 	db	32
   307  000647  70                 	db	112	;'p'
   308  000648  72                 	db	114	;'r'
   309  000649  6F                 	db	111	;'o'
   310  00064A  6E                 	db	110	;'n'
   311  00064B  74                 	db	116	;'t'
   312  00064C  6F                 	db	111	;'o'
   313  00064D  00                 	db	0
   314  00064E                     STR_8:
   315  00064E  65                 	db	101	;'e'
   316  00064F  73                 	db	115	;'s'
   317  000650  74                 	db	116	;'t'
   318  000651  61                 	db	97	;'a'
   319  000652  72                 	db	114	;'r'
   320  000653  61                 	db	97	;'a'
   321  000654  20                 	db	32
   322  000655  70                 	db	112	;'p'
   323  000656  72                 	db	114	;'r'
   324  000657  6F                 	db	111	;'o'
   325  000658  6E                 	db	110	;'n'
   326  000659  74                 	db	116	;'t'
   327  00065A  6F                 	db	111	;'o'
   328  00065B  00                 	db	0
   329  00065C                     STR_1:
   330  00065C  42                 	db	66	;'B'
   331  00065D  65                 	db	101	;'e'
   332  00065E  6D                 	db	109	;'m'
   333  00065F  2D                 	db	45
   334  000660  76                 	db	118	;'v'
   335  000661  69                 	db	105	;'i'
   336  000662  6E                 	db	110	;'n'
   337  000663  64                 	db	100	;'d'
   338  000664  6F                 	db	111	;'o'
   339  000665  28                 	db	40
   340  000666  61                 	db	97	;'a'
   341  000667  29                 	db	41
   342  000668  00                 	db	0
   343  000669                     STR_11:
   344  000669  56                 	db	86	;'V'
   345  00066A  6F                 	db	111	;'o'
   346  00066B  6C                 	db	108	;'l'
   347  00066C  74                 	db	116	;'t'
   348  00066D  65                 	db	101	;'e'
   349  00066E  20                 	db	32
   350  00066F  73                 	db	115	;'s'
   351  000670  65                 	db	101	;'e'
   352  000671  6D                 	db	109	;'m'
   353  000672  70                 	db	112	;'p'
   354  000673  72                 	db	114	;'r'
   355  000674  65                 	db	101	;'e'
   356  000675  00                 	db	0
   357  000676                     STR_2:
   358  000676  50                 	db	80	;'P'
   359  000677  61                 	db	97	;'a'
   360  000678  72                 	db	114	;'r'
   361  000679  61                 	db	97	;'a'
   362  00067A  20                 	db	32
   363  00067B  63                 	db	99	;'c'
   364  00067C  6F                 	db	111	;'o'
   365  00067D  6D                 	db	109	;'m'
   366  00067E  65                 	db	101	;'e'
   367  00067F  63                 	db	99	;'c'
   368  000680  61                 	db	97	;'a'
   369  000681  72                 	db	114	;'r'
   370  000682  00                 	db	0
   371  000683                     STR_4:
   372  000683  43                 	db	67	;'C'
   373  000684  72                 	db	114	;'r'
   374  000685  65                 	db	101	;'e'
   375  000686  6D                 	db	109	;'m'
   376  000687  6F                 	db	111	;'o'
   377  000688  73                 	db	115	;'s'
   378  000689  69                 	db	105	;'i'
   379  00068A  64                 	db	100	;'d'
   380  00068B  61                 	db	97	;'a'
   381  00068C  64                 	db	100	;'d'
   382  00068D  65                 	db	101	;'e'
   383  00068E  00                 	db	0
   384  00068F                     STR_7:
   385  00068F  52                 	db	82	;'R'
   386  000690  61                 	db	97	;'a'
   387  000691  70                 	db	112	;'p'
   388  000692  69                 	db	105	;'i'
   389  000693  64                 	db	100	;'d'
   390  000694  61                 	db	97	;'a'
   391  000695  6D                 	db	109	;'m'
   392  000696  65                 	db	101	;'e'
   393  000697  6E                 	db	110	;'n'
   394  000698  74                 	db	116	;'t'
   395  000699  65                 	db	101	;'e'
   396  00069A  00                 	db	0
   397  00069B                     STR_3:
   398  00069B  50                 	db	80	;'P'
   399  00069C  72                 	db	114	;'r'
   400  00069D  65                 	db	101	;'e'
   401  00069E  73                 	db	115	;'s'
   402  00069F  73                 	db	115	;'s'
   403  0006A0  2E                 	db	46
   404  0006A1  20                 	db	32
   405  0006A2  23                 	db	35
   406  0006A3  00                 	db	0
   407  0006A4                     STR_6:
   408  0006A4  41                 	db	65	;'A'
   409  0006A5  67                 	db	103	;'g'
   410  0006A6  75                 	db	117	;'u'
   411  0006A7  61                 	db	97	;'a'
   412  0006A8  72                 	db	114	;'r'
   413  0006A9  64                 	db	100	;'d'
   414  0006AA  65                 	db	101	;'e'
   415  0006AB  00                 	db	0
   416  0006AC  00                 	db	0	; dummy byte at the end
   417  0000                     
   418                           ; #config settings
   419                           
   420                           	psect	cinit
   421  00230C                     __pcinit:
   422                           	callstack 0
   423  00230C                     start_initialization:
   424                           	callstack 0
   425  00230C                     __initialization:
   426                           	callstack 0
   427                           
   428                           ; Initialize objects allocated to BANK1 (55 bytes)
   429                           ; load TBLPTR registers with __pidataBANK1
   430  00230C  0EA8               	movlw	low __pidataBANK1
   431  00230E  6EF6               	movwf	tblptrl,c
   432  002310  0E24               	movlw	high __pidataBANK1
   433  002312  6EF7               	movwf	tblptrh,c
   434  002314  0E00               	movlw	low (__pidataBANK1 shr (0+16))
   435  002316  6EF8               	movwf	tblptru,c
   436  002318  EE01  F000         	lfsr	0,__pdataBANK1
   437  00231C  EE10 F037          	lfsr	1,55
   438  002320                     copy_data0:
   439  002320  0009               	tblrd		*+
   440  002322  CFF5 FFEE          	movff	tablat,postinc0
   441  002326  50E5               	movf	postdec1,w,c
   442  002328  50E1               	movf	fsr1l,w,c
   443  00232A  E1FA               	bnz	copy_data0
   444                           
   445                           ; Initialize objects allocated to COMRAM (48 bytes)
   446                           ; load TBLPTR registers with __pidataCOMRAM
   447  00232C  0EDF               	movlw	low __pidataCOMRAM
   448  00232E  6EF6               	movwf	tblptrl,c
   449  002330  0E24               	movlw	high __pidataCOMRAM
   450  002332  6EF7               	movwf	tblptrh,c
   451  002334  0E00               	movlw	low (__pidataCOMRAM shr (0+16))
   452  002336  6EF8               	movwf	tblptru,c
   453  002338  EE00  F001         	lfsr	0,__pdataCOMRAM
   454  00233C  EE10 F030          	lfsr	1,48
   455  002340                     copy_data1:
   456  002340  0009               	tblrd		*+
   457  002342  CFF5 FFEE          	movff	tablat,postinc0
   458  002346  50E5               	movf	postdec1,w,c
   459  002348  50E1               	movf	fsr1l,w,c
   460  00234A  E1FA               	bnz	copy_data1
   461                           
   462                           ; Clear objects allocated to COMRAM (12 bytes)
   463  00234C  EE00  F04A         	lfsr	0,__pbssCOMRAM
   464  002350  0E0C               	movlw	12
   465  002352                     clear_0:
   466  002352  6AEE               	clrf	postinc0,c
   467  002354  06E8               	decf	wreg,f,c
   468  002356  E1FD               	bnz	clear_0
   469  002358                     end_of_initialization:
   470                           	callstack 0
   471  002358                     __end_of__initialization:
   472                           	callstack 0
   473  002358  0E00               	movlw	low (__Lmediumconst shr (0+16))
   474  00235A  6EF8               	movwf	tblptru,c
   475  00235C  0100               	movlb	0
   476  00235E  EF57  F003         	goto	_main	;jump to C main() function
   477                           
   478                           	psect	bssCOMRAM
   479  00004A                     __pbssCOMRAM:
   480                           	callstack 0
   481  00004A                     kpDebounce@valorAntigo:
   482                           	callstack 0
   483  00004A                     	ds	2
   484  00004C                     kpDebounce@valorNovo:
   485                           	callstack 0
   486  00004C                     	ds	2
   487  00004E                     _valor:
   488                           	callstack 0
   489  00004E                     	ds	2
   490  000050                     _v3:
   491                           	callstack 0
   492  000050                     	ds	1
   493  000051                     _v2:
   494                           	callstack 0
   495  000051                     	ds	1
   496  000052                     _v1:
   497                           	callstack 0
   498  000052                     	ds	1
   499  000053                     _v0:
   500                           	callstack 0
   501  000053                     	ds	1
   502  000054                     _display:
   503                           	callstack 0
   504  000054                     	ds	1
   505  000055                     kpDebounce@tempo:
   506                           	callstack 0
   507  000055                     	ds	1
   508                           
   509                           	psect	dataCOMRAM
   510  000001                     __pdataCOMRAM:
   511                           	callstack 0
   512  000001                     main@F2608:
   513                           	callstack 0
   514  000001                     	ds	48
   515                           
   516                           	psect	dataBANK1
   517  000100                     __pdataBANK1:
   518                           	callstack 0
   519  000100                     main@F2602:
   520                           	callstack 0
   521  000100                     	ds	55
   522                           
   523                           	psect	cstackBANK0
   524  000080                     __pcstackBANK0:
   525                           	callstack 0
   526  000080                     main@desenho:
   527                           	callstack 0
   528                           
   529                           ; 48 bytes @ 0x0
   530  000080                     	ds	48
   531  0000B0                     main@opcoes:
   532                           	callstack 0
   533                           
   534                           ; 55 bytes @ 0x30
   535  0000B0                     	ds	55
   536  0000E7                     main@str:
   537                           	callstack 0
   538                           
   539                           ; 6 bytes @ 0x67
   540  0000E7                     	ds	6
   541  0000ED                     main@tmp:
   542                           	callstack 0
   543                           
   544                           ; 1 bytes @ 0x6D
   545  0000ED                     	ds	1
   546  0000EE                     main@aux:
   547                           	callstack 0
   548                           
   549                           ; 2 bytes @ 0x6E
   550  0000EE                     	ds	2
   551  0000F0                     main@tecla:
   552                           	callstack 0
   553                           
   554                           ; 2 bytes @ 0x70
   555  0000F0                     	ds	2
   556  0000F2                     main@tempoSSD:
   557                           	callstack 0
   558                           
   559                           ; 4 bytes @ 0x72
   560  0000F2                     	ds	4
   561  0000F6                     main@i:
   562                           	callstack 0
   563                           
   564                           ; 1 bytes @ 0x76
   565  0000F6                     	ds	1
   566                           
   567                           	psect	cstackCOMRAM
   568  000031                     __pcstackCOMRAM:
   569                           	callstack 0
   570  000031                     ??_kpDebounce:
   571  000031                     ?_adc_amostra:
   572                           	callstack 0
   573  000031                     ?_kpRead:
   574                           	callstack 0
   575  000031                     ?___lwmod:
   576                           	callstack 0
   577  000031                     ?___fladd:
   578                           	callstack 0
   579  000031                     ?___aldiv:
   580                           	callstack 0
   581  000031                     Delay40us@i:
   582                           	callstack 0
   583  000031                     ssdDigit@pos:
   584                           	callstack 0
   585  000031                     tempo@x:
   586                           	callstack 0
   587  000031                     LigarLed@pot:
   588                           	callstack 0
   589  000031                     digitalWrite@pin:
   590                           	callstack 0
   591  000031                     pinMode@pin:
   592                           	callstack 0
   593  000031                     ___lwmod@dividend:
   594                           	callstack 0
   595  000031                     ___aldiv@dividend:
   596                           	callstack 0
   597  000031                     ___flge@ff1:
   598                           	callstack 0
   599  000031                     ___fladd@b:
   600                           	callstack 0
   601                           
   602                           ; 4 bytes @ 0x0
   603  000031                     	ds	1
   604  000032                     Delay2ms@i:
   605                           	callstack 0
   606  000032                     ssdDigit@val:
   607                           	callstack 0
   608  000032                     tempo@i:
   609                           	callstack 0
   610  000032                     LigarLed@num:
   611                           	callstack 0
   612                           
   613                           ; 1 bytes @ 0x1
   614  000032                     	ds	1
   615  000033                     ??_adc_amostra:
   616  000033                     tempo@j:
   617                           	callstack 0
   618  000033                     LigarLed@i:
   619                           	callstack 0
   620  000033                     digitalWrite@value:
   621                           	callstack 0
   622  000033                     pinMode@type:
   623                           	callstack 0
   624  000033                     ___lwmod@divisor:
   625                           	callstack 0
   626                           
   627                           ; 2 bytes @ 0x2
   628  000033                     	ds	1
   629  000034                     tempo@k:
   630                           	callstack 0
   631  000034                     LigarLed@a:
   632                           	callstack 0
   633                           
   634                           ; 1 bytes @ 0x3
   635  000034                     	ds	1
   636  000035                     ??_digitalWrite:
   637  000035                     ??_pinMode:
   638  000035                     LigarLed@j:
   639                           	callstack 0
   640  000035                     ___lwmod@counter:
   641                           	callstack 0
   642  000035                     ___aldiv@divisor:
   643                           	callstack 0
   644  000035                     ___flge@ff2:
   645                           	callstack 0
   646  000035                     ___fladd@a:
   647                           	callstack 0
   648                           
   649                           ; 4 bytes @ 0x4
   650  000035                     	ds	1
   651  000036                     kpDebounce@old_D:
   652                           	callstack 0
   653                           
   654                           ; 1 bytes @ 0x5
   655  000036                     	ds	1
   656  000037                     ??_ssdUpdate:
   657  000037                     lcdCommand@old_D:
   658                           	callstack 0
   659  000037                     lcdData@valor:
   660                           	callstack 0
   661  000037                     adc_amostra@canal:
   662                           	callstack 0
   663  000037                     kpDebounce@k:
   664                           	callstack 0
   665                           
   666                           ; 2 bytes @ 0x6
   667  000037                     	ds	1
   668  000038                     ?___wmul:
   669                           	callstack 0
   670  000038                     lcdCommand@cmd:
   671                           	callstack 0
   672  000038                     lcdData@old_D:
   673                           	callstack 0
   674  000038                     ___wmul@multiplier:
   675                           	callstack 0
   676                           
   677                           ; 2 bytes @ 0x7
   678  000038                     	ds	1
   679  000039                     ??___fladd:
   680  000039                     ??___flge:
   681  000039                     kpDebounce@j:
   682                           	callstack 0
   683  000039                     lcdPosition@coluna:
   684                           	callstack 0
   685  000039                     ___aldiv@counter:
   686                           	callstack 0
   687  000039                     lcd_str@str:
   688                           	callstack 0
   689                           
   690                           ; 2 bytes @ 0x8
   691  000039                     	ds	1
   692  00003A                     kpDebounce@i:
   693                           	callstack 0
   694  00003A                     lcdPosition@aux:
   695                           	callstack 0
   696  00003A                     ___aldiv@sign:
   697                           	callstack 0
   698  00003A                     ___wmul@multiplicand:
   699                           	callstack 0
   700                           
   701                           ; 2 bytes @ 0x9
   702  00003A                     	ds	1
   703  00003B                     ??_lcd_str:
   704  00003B                     lcdPosition@linha:
   705                           	callstack 0
   706  00003B                     ___aldiv@quotient:
   707                           	callstack 0
   708                           
   709                           ; 4 bytes @ 0xA
   710  00003B                     	ds	1
   711  00003C                     printf@v:
   712                           	callstack 0
   713  00003C                     clear@xi:
   714                           	callstack 0
   715  00003C                     ___wmul@product:
   716                           	callstack 0
   717                           
   718                           ; 2 bytes @ 0xB
   719  00003C                     	ds	1
   720  00003D                     lcd_str@i:
   721                           	callstack 0
   722  00003D                     ___fladd@signs:
   723                           	callstack 0
   724                           
   725                           ; 1 bytes @ 0xC
   726  00003D                     	ds	1
   727  00003E                     ??_printf:
   728  00003E                     ?___lwdiv:
   729                           	callstack 0
   730  00003E                     ___fladd@aexp:
   731                           	callstack 0
   732  00003E                     clear@xf:
   733                           	callstack 0
   734  00003E                     ___lwdiv@dividend:
   735                           	callstack 0
   736                           
   737                           ; 2 bytes @ 0xD
   738  00003E                     	ds	1
   739  00003F                     ___fladd@bexp:
   740                           	callstack 0
   741  00003F                     pwmFrequency@freq:
   742                           	callstack 0
   743                           
   744                           ; 2 bytes @ 0xE
   745  00003F                     	ds	1
   746  000040                     ___fladd@grs:
   747                           	callstack 0
   748  000040                     clear@yi:
   749                           	callstack 0
   750  000040                     ___lwdiv@divisor:
   751                           	callstack 0
   752                           
   753                           ; 2 bytes @ 0xF
   754  000040                     	ds	1
   755  000041                     printf@coluna:
   756                           	callstack 0
   757                           
   758                           ; 1 bytes @ 0x10
   759  000041                     	ds	1
   760  000042                     printf@linha:
   761                           	callstack 0
   762  000042                     clear@yf:
   763                           	callstack 0
   764  000042                     ___lwdiv@quotient:
   765                           	callstack 0
   766                           
   767                           ; 2 bytes @ 0x11
   768  000042                     	ds	1
   769  000043                     printf@i:
   770                           	callstack 0
   771                           
   772                           ; 1 bytes @ 0x12
   773  000043                     	ds	1
   774  000044                     ??_clear:
   775  000044                     ___lwdiv@counter:
   776                           	callstack 0
   777                           
   778                           ; 1 bytes @ 0x13
   779  000044                     	ds	1
   780  000045                     ??_pwmSet:
   781  000045                     itoa@val:
   782                           	callstack 0
   783                           
   784                           ; 2 bytes @ 0x14
   785  000045                     	ds	2
   786  000047                     clear@i:
   787                           	callstack 0
   788  000047                     pwmSet@porcento:
   789                           	callstack 0
   790  000047                     itoa@str:
   791                           	callstack 0
   792                           
   793                           ; 2 bytes @ 0x16
   794  000047                     	ds	1
   795  000048                     clear@j:
   796                           	callstack 0
   797  000048                     pwmSet@val:
   798                           	callstack 0
   799                           
   800                           ; 2 bytes @ 0x17
   801  000048                     	ds	1
   802  000049                     
   803                           ; 1 bytes @ 0x18
   804  000049                     	ds	1
   805  00004A                     
   806                           ; 1 bytes @ 0x19
   807 ;;
   808 ;;Main: autosize = 0, tempsize = 0, incstack = 0, save=0
   809 ;;
   810 ;; *************** function _main *****************
   811 ;; Defined at:
   812 ;;		line 13 in file "main_PF.c"
   813 ;; Parameters:    Size  Location     Type
   814 ;;		None
   815 ;; Auto vars:     Size  Location     Type
   816 ;;  opcoes         55   48[BANK0 ] unsigned char [55]
   817 ;;  desenho        48    0[BANK0 ] unsigned char [48]
   818 ;;  str             6  103[BANK0 ] unsigned char [6]
   819 ;;  tempoSSD        4  114[BANK0 ] float 
   820 ;;  tecla           2  112[BANK0 ] unsigned int 
   821 ;;  aux             2  110[BANK0 ] int 
   822 ;;  i               1  118[BANK0 ] unsigned char 
   823 ;;  tmp             1  109[BANK0 ] unsigned char 
   824 ;; Return value:  Size  Location     Type
   825 ;;                  1    wreg      void 
   826 ;; Registers used:
   827 ;;		wreg, fsr1l, fsr1h, fsr2l, fsr2h, status,2, status,0, tblptrl, tblptrh, tblptru, prodl, prodh, cstack
   828 ;; Tracked objects:
   829 ;;		On entry : 0/0
   830 ;;		On exit  : 0/0
   831 ;;		Unchanged: 0/0
   832 ;; Data sizes:     COMRAM   BANK0   BANK1   BANK2   BANK3   BANK4   BANK5
   833 ;;      Params:         0       0       0       0       0       0       0
   834 ;;      Locals:         0     119       0       0       0       0       0
   835 ;;      Temps:          0       0       0       0       0       0       0
   836 ;;      Totals:         0     119       0       0       0       0       0
   837 ;;Total ram usage:      119 bytes
   838 ;; Hardware stack levels required when called: 5
   839 ;; This function calls:
   840 ;;		_LigarLed
   841 ;;		___fladd
   842 ;;		___flge
   843 ;;		___lwdiv
   844 ;;		___wmul
   845 ;;		_adc_amostra
   846 ;;		_clear
   847 ;;		_itoa
   848 ;;		_kpDebounce
   849 ;;		_kpInit
   850 ;;		_kpRead
   851 ;;		_lcdCommand
   852 ;;		_lcdData
   853 ;;		_lcdInit
   854 ;;		_lcdPosition
   855 ;;		_lcd_str
   856 ;;		_printf
   857 ;;		_pwmInit
   858 ;;		_pwmSet
   859 ;;		_ssdDigit
   860 ;;		_ssdInit
   861 ;;		_ssdUpdate
   862 ;;		_tempo
   863 ;; This function is called by:
   864 ;;		Startup code after reset
   865 ;; This function uses a non-reentrant model
   866 ;;
   867                           
   868                           	psect	text0
   869  0006AE                     __ptext0:
   870                           	callstack 0
   871  0006AE                     _main:
   872                           	callstack 26
   873  0006AE                     
   874                           ;main_PF.c: 14:     char i, str[6];;main_PF.c: 15:     char opcoes[55] = "Escolha o sabo
      +                          r:\\n1-Baunilha\\n2-Chocolate\\n3-Mista";
   875  0006AE  EE21  F000         	lfsr	2,main@F2602
   876  0006B2  EE10  F0B0         	lfsr	1,main@opcoes
   877  0006B6  0E36               	movlw	54
   878  0006B8                     u3211:
   879  0006B8  CFDB FFE3          	movff	plusw2,plusw1
   880  0006BC  06E8               	decf	wreg,f,c
   881  0006BE  E2FC               	bc	u3211
   882  0006C0                     
   883                           ;main_PF.c: 16:     unsigned int tecla = 16;
   884  0006C0  0E00               	movlw	0
   885  0006C2  0100               	movlb	0	; () banked
   886  0006C4  6FF1               	movwf	(main@tecla+1)& (0+255),b
   887  0006C6  0E10               	movlw	16
   888  0006C8  6FF0               	movwf	main@tecla& (0+255),b
   889  0006CA                     
   890                           ; BSR set to: 0
   891                           ;main_PF.c: 17:     float tempoSSD;;main_PF.c: 18:     int aux = 0;
   892  0006CA  0E00               	movlw	0
   893  0006CC  6FEF               	movwf	(main@aux+1)& (0+255),b
   894  0006CE  0E00               	movlw	0
   895  0006D0  6FEE               	movwf	main@aux& (0+255),b
   896                           
   897                           ;main_PF.c: 19:     unsigned char tmp;;main_PF.c: 20:     char desenho[48] = {
   898  0006D2  EE20  F001         	lfsr	2,main@F2608
   899  0006D6  EE10  F080         	lfsr	1,main@desenho
   900  0006DA  0E2F               	movlw	47
   901  0006DC                     u3221:
   902  0006DC  CFDB FFE3          	movff	plusw2,plusw1
   903  0006E0  06E8               	decf	wreg,f,c
   904  0006E2  E2FC               	bc	u3221
   905  0006E4                     
   906                           ; BSR set to: 0
   907                           ;main_PF.c: 28:     lcdInit();
   908  0006E4  EC12  F010         	call	_lcdInit	;wreg free
   909  0006E8                     
   910                           ;main_PF.c: 29:     ssdInit();
   911  0006E8  ECB1  F011         	call	_ssdInit	;wreg free
   912  0006EC                     
   913                           ;main_PF.c: 30:     kpInit();
   914  0006EC  ECDA  F012         	call	_kpInit	;wreg free
   915  0006F0                     
   916                           ;main_PF.c: 31:     pwmInit();
   917  0006F0  ECBC  F012         	call	_pwmInit	;wreg free
   918  0006F4                     
   919                           ;main_PF.c: 34:     lcdPosition(0, 2);
   920  0006F4  0E02               	movlw	2
   921  0006F6  6E39               	movwf	lcdPosition@coluna^0,c
   922  0006F8  0E00               	movlw	0
   923  0006FA  ECF5  F010         	call	_lcdPosition
   924  0006FE                     
   925                           ;main_PF.c: 35:     lcd_str("Bem-vindo(a)");
   926  0006FE  0E5C               	movlw	low STR_1
   927  000700  6E39               	movwf	lcd_str@str^0,c
   928  000702  0E06               	movlw	high STR_1
   929  000704  6E3A               	movwf	(lcd_str@str+1)^0,c
   930  000706  EC06  F012         	call	_lcd_str	;wreg free
   931  00070A                     
   932                           ;main_PF.c: 36:     lcdPosition(2, 0);
   933  00070A  0E00               	movlw	0
   934  00070C  6E39               	movwf	lcdPosition@coluna^0,c
   935  00070E  0E02               	movlw	2
   936  000710  ECF5  F010         	call	_lcdPosition
   937  000714                     
   938                           ;main_PF.c: 37:     lcd_str("Para comecar");
   939  000714  0E76               	movlw	low STR_2
   940  000716  6E39               	movwf	lcd_str@str^0,c
   941  000718  0E06               	movlw	high STR_2
   942  00071A  6E3A               	movwf	(lcd_str@str+1)^0,c
   943  00071C  EC06  F012         	call	_lcd_str	;wreg free
   944  000720                     
   945                           ;main_PF.c: 38:     lcdPosition(3, 0);
   946  000720  0E00               	movlw	0
   947  000722  6E39               	movwf	lcdPosition@coluna^0,c
   948  000724  0E03               	movlw	3
   949  000726  ECF5  F010         	call	_lcdPosition
   950  00072A                     
   951                           ;main_PF.c: 39:     lcd_str("Press. #");
   952  00072A  0E9B               	movlw	low STR_3
   953  00072C  6E39               	movwf	lcd_str@str^0,c
   954  00072E  0E06               	movlw	high STR_3
   955  000730  6E3A               	movwf	(lcd_str@str+1)^0,c
   956  000732  EC06  F012         	call	_lcd_str	;wreg free
   957                           
   958                           ;main_PF.c: 40:     while (aux == 0) {
   959  000736  EFC0  F003         	goto	l3193
   960  00073A                     l3183:
   961                           
   962                           ; BSR set to: 0
   963                           ;main_PF.c: 41:         kpDebounce();
   964  00073A  ECA6  F00B         	call	_kpDebounce	;wreg free
   965  00073E                     
   966                           ;main_PF.c: 42:         if (kpRead() != tecla) {
   967  00073E  ECD5  F012         	call	_kpRead	;wreg free
   968  000742  0100               	movlb	0	; () banked
   969  000744  51F0               	movf	main@tecla& (0+255),w,b
   970  000746  1831               	xorwf	?_kpRead^0,w,c
   971  000748  E109               	bnz	u3230
   972  00074A  51F1               	movf	(main@tecla+1)& (0+255),w,b
   973  00074C  1832               	xorwf	(?_kpRead+1)^0,w,c
   974  00074E  B4D8               	btfsc	status,2,c
   975  000750  EFAC  F003         	goto	u3231
   976  000754  EFAE  F003         	goto	u3230
   977  000758                     u3231:
   978  000758  EFC0  F003         	goto	l3193
   979  00075C                     u3230:
   980  00075C                     
   981                           ; BSR set to: 0
   982                           ;main_PF.c: 43:             tecla = kpRead();
   983  00075C  ECD5  F012         	call	_kpRead	;wreg free
   984  000760  C031  F0F0         	movff	?_kpRead,main@tecla
   985  000764  C032  F0F1         	movff	?_kpRead+1,main@tecla+1
   986  000768                     
   987                           ;main_PF.c: 45:             if (((tecla) & (1<<(8)))) {
   988  000768  0100               	movlb	0	; () banked
   989  00076A  A1F1               	btfss	(main@tecla+1)& (0+255),0,b
   990  00076C  EFBA  F003         	goto	u3241
   991  000770  EFBC  F003         	goto	u3240
   992  000774                     u3241:
   993  000774  EFC0  F003         	goto	l3193
   994  000778                     u3240:
   995  000778                     
   996                           ; BSR set to: 0
   997                           ;main_PF.c: 46:                 aux = 1;
   998  000778  0E00               	movlw	0
   999  00077A  6FEF               	movwf	(main@aux+1)& (0+255),b
  1000  00077C  0E01               	movlw	1
  1001  00077E  6FEE               	movwf	main@aux& (0+255),b
  1002  000780                     l3193:
  1003                           
  1004                           ;main_PF.c: 40:     while (aux == 0) {
  1005  000780  0100               	movlb	0	; () banked
  1006  000782  51EE               	movf	main@aux& (0+255),w,b
  1007  000784  11EF               	iorwf	(main@aux+1)& (0+255),w,b
  1008  000786  B4D8               	btfsc	status,2,c
  1009  000788  EFC8  F003         	goto	u3251
  1010  00078C  EFCA  F003         	goto	u3250
  1011  000790                     u3251:
  1012  000790  EF9D  F003         	goto	l3183
  1013  000794                     u3250:
  1014  000794                     
  1015                           ; BSR set to: 0
  1016                           ;main_PF.c: 52:     clear(0, 4, 0, 16);
  1017  000794  0E00               	movlw	0
  1018  000796  6E3D               	movwf	(clear@xi+1)^0,c
  1019  000798  0E00               	movlw	0
  1020  00079A  6E3C               	movwf	clear@xi^0,c
  1021  00079C  0E00               	movlw	0
  1022  00079E  6E3F               	movwf	(clear@xf+1)^0,c
  1023  0007A0  0E04               	movlw	4
  1024  0007A2  6E3E               	movwf	clear@xf^0,c
  1025  0007A4  0E00               	movlw	0
  1026  0007A6  6E41               	movwf	(clear@yi+1)^0,c
  1027  0007A8  0E00               	movlw	0
  1028  0007AA  6E40               	movwf	clear@yi^0,c
  1029  0007AC  0E00               	movlw	0
  1030  0007AE  6E43               	movwf	(clear@yf+1)^0,c
  1031  0007B0  0E10               	movlw	16
  1032  0007B2  6E42               	movwf	clear@yf^0,c
  1033  0007B4  EC88  F010         	call	_clear	;wreg free
  1034                           
  1035                           ;main_PF.c: 53:     lcdPosition(0, 0);
  1036  0007B8  0E00               	movlw	0
  1037  0007BA  6E39               	movwf	lcdPosition@coluna^0,c
  1038  0007BC  0E00               	movlw	0
  1039  0007BE  ECF5  F010         	call	_lcdPosition
  1040  0007C2                     
  1041                           ;main_PF.c: 54:     printf(opcoes);
  1042  0007C2  0EB0               	movlw	low main@opcoes
  1043  0007C4  6E3C               	movwf	printf@v^0,c
  1044  0007C6  0E00               	movlw	high main@opcoes
  1045  0007C8  6E3D               	movwf	(printf@v+1)^0,c
  1046  0007CA  EC8E  F00F         	call	_printf	;wreg free
  1047                           
  1048                           ;main_PF.c: 55:     while (aux == 1) {
  1049  0007CE  EF72  F005         	goto	l3265
  1050  0007D2                     l3199:
  1051                           
  1052                           ; BSR set to: 0
  1053                           ;main_PF.c: 57:         kpDebounce();
  1054  0007D2  ECA6  F00B         	call	_kpDebounce	;wreg free
  1055  0007D6                     
  1056                           ;main_PF.c: 58:         if (kpRead() != tecla) {
  1057  0007D6  ECD5  F012         	call	_kpRead	;wreg free
  1058  0007DA  0100               	movlb	0	; () banked
  1059  0007DC  51F0               	movf	main@tecla& (0+255),w,b
  1060  0007DE  1831               	xorwf	?_kpRead^0,w,c
  1061  0007E0  E109               	bnz	u3260
  1062  0007E2  51F1               	movf	(main@tecla+1)& (0+255),w,b
  1063  0007E4  1832               	xorwf	(?_kpRead+1)^0,w,c
  1064  0007E6  B4D8               	btfsc	status,2,c
  1065  0007E8  EFF8  F003         	goto	u3261
  1066  0007EC  EFFA  F003         	goto	u3260
  1067  0007F0                     u3261:
  1068  0007F0  EF72  F005         	goto	l3265
  1069  0007F4                     u3260:
  1070  0007F4                     
  1071                           ; BSR set to: 0
  1072                           ;main_PF.c: 59:             tecla = kpRead();
  1073  0007F4  ECD5  F012         	call	_kpRead	;wreg free
  1074  0007F8  C031  F0F0         	movff	?_kpRead,main@tecla
  1075  0007FC  C032  F0F1         	movff	?_kpRead+1,main@tecla+1
  1076  000800                     
  1077                           ;main_PF.c: 61:             if (((tecla) & (1<<(3)))) {
  1078  000800  0100               	movlb	0	; () banked
  1079  000802  A7F0               	btfss	main@tecla& (0+255),3,b
  1080  000804  EF06  F004         	goto	u3271
  1081  000808  EF08  F004         	goto	u3270
  1082  00080C                     u3271:
  1083  00080C  EF7C  F004         	goto	l3225
  1084  000810                     u3270:
  1085  000810                     
  1086                           ; BSR set to: 0
  1087                           ;main_PF.c: 62:                 for (tempoSSD = 0; tempoSSD < 300; tempoSSD++) {
  1088  000810  0E00               	movlw	0
  1089  000812  6FF2               	movwf	main@tempoSSD& (0+255),b
  1090  000814  0E00               	movlw	0
  1091  000816  6FF3               	movwf	(main@tempoSSD+1)& (0+255),b
  1092  000818  0E00               	movlw	0
  1093  00081A  6FF4               	movwf	(main@tempoSSD+2)& (0+255),b
  1094  00081C  0E00               	movlw	0
  1095  00081E  6FF5               	movwf	(main@tempoSSD+3)& (0+255),b
  1096  000820                     
  1097                           ; BSR set to: 0
  1098  000820  C0F2  F031         	movff	main@tempoSSD,___flge@ff1
  1099  000824  C0F3  F032         	movff	main@tempoSSD+1,___flge@ff1+1
  1100  000828  C0F4  F033         	movff	main@tempoSSD+2,___flge@ff1+2
  1101  00082C  C0F5  F034         	movff	main@tempoSSD+3,___flge@ff1+3
  1102  000830  0E00               	movlw	0
  1103  000832  6E35               	movwf	___flge@ff2^0,c
  1104  000834  0E00               	movlw	0
  1105  000836  6E36               	movwf	(___flge@ff2+1)^0,c
  1106  000838  0E96               	movlw	150
  1107  00083A  6E37               	movwf	(___flge@ff2+2)^0,c
  1108  00083C  0E43               	movlw	67
  1109  00083E  6E38               	movwf	(___flge@ff2+3)^0,c
  1110  000840  ECC4  F00E         	call	___flge	;wreg free
  1111  000844  A0D8               	btfss	status,0,c
  1112  000846  EF27  F004         	goto	u3281
  1113  00084A  EF29  F004         	goto	u3280
  1114  00084E                     u3281:
  1115  00084E  EF2B  F004         	goto	l3213
  1116  000852                     u3280:
  1117  000852  EF77  F004         	goto	l3223
  1118  000856                     l3213:
  1119                           
  1120                           ;main_PF.c: 63:                     ssdDigit(0, 0);
  1121  000856  0E00               	movlw	0
  1122  000858  6E31               	movwf	ssdDigit@pos^0,c
  1123  00085A  0E00               	movlw	0
  1124  00085C  EC5A  F011         	call	_ssdDigit
  1125                           
  1126                           ;main_PF.c: 64:                     ssdDigit(3, 1);
  1127  000860  0E01               	movlw	1
  1128  000862  6E31               	movwf	ssdDigit@pos^0,c
  1129  000864  0E03               	movlw	3
  1130  000866  EC5A  F011         	call	_ssdDigit
  1131                           
  1132                           ;main_PF.c: 65:                     ssdDigit(5, 2);
  1133  00086A  0E02               	movlw	2
  1134  00086C  6E31               	movwf	ssdDigit@pos^0,c
  1135  00086E  0E05               	movlw	5
  1136  000870  EC5A  F011         	call	_ssdDigit
  1137                           
  1138                           ;main_PF.c: 66:                     ssdDigit(0, 3);
  1139  000874  0E03               	movlw	3
  1140  000876  6E31               	movwf	ssdDigit@pos^0,c
  1141  000878  0E00               	movlw	0
  1142  00087A  EC5A  F011         	call	_ssdDigit
  1143  00087E                     
  1144                           ;main_PF.c: 67:                     ssdUpdate();
  1145  00087E  EC11  F00D         	call	_ssdUpdate	;wreg free
  1146  000882                     
  1147                           ;main_PF.c: 68:                     tempo(5);
  1148  000882  0E05               	movlw	5
  1149  000884  EC2E  F012         	call	_tempo
  1150  000888                     
  1151                           ;main_PF.c: 69:                 }
  1152  000888  C0F2  F031         	movff	main@tempoSSD,___fladd@b
  1153  00088C  C0F3  F032         	movff	main@tempoSSD+1,___fladd@b+1
  1154  000890  C0F4  F033         	movff	main@tempoSSD+2,___fladd@b+2
  1155  000894  C0F5  F034         	movff	main@tempoSSD+3,___fladd@b+3
  1156  000898  0E00               	movlw	0
  1157  00089A  6E35               	movwf	___fladd@a^0,c
  1158  00089C  0E00               	movlw	0
  1159  00089E  6E36               	movwf	(___fladd@a+1)^0,c
  1160  0008A0  0E80               	movlw	128
  1161  0008A2  6E37               	movwf	(___fladd@a+2)^0,c
  1162  0008A4  0E3F               	movlw	63
  1163  0008A6  6E38               	movwf	(___fladd@a+3)^0,c
  1164  0008A8  ECF8  F006         	call	___fladd	;wreg free
  1165  0008AC  C031  F0F2         	movff	?___fladd,main@tempoSSD
  1166  0008B0  C032  F0F3         	movff	?___fladd+1,main@tempoSSD+1
  1167  0008B4  C033  F0F4         	movff	?___fladd+2,main@tempoSSD+2
  1168  0008B8  C034  F0F5         	movff	?___fladd+3,main@tempoSSD+3
  1169  0008BC  C0F2  F031         	movff	main@tempoSSD,___flge@ff1
  1170  0008C0  C0F3  F032         	movff	main@tempoSSD+1,___flge@ff1+1
  1171  0008C4  C0F4  F033         	movff	main@tempoSSD+2,___flge@ff1+2
  1172  0008C8  C0F5  F034         	movff	main@tempoSSD+3,___flge@ff1+3
  1173  0008CC  0E00               	movlw	0
  1174  0008CE  6E35               	movwf	___flge@ff2^0,c
  1175  0008D0  0E00               	movlw	0
  1176  0008D2  6E36               	movwf	(___flge@ff2+1)^0,c
  1177  0008D4  0E96               	movlw	150
  1178  0008D6  6E37               	movwf	(___flge@ff2+2)^0,c
  1179  0008D8  0E43               	movlw	67
  1180  0008DA  6E38               	movwf	(___flge@ff2+3)^0,c
  1181  0008DC  ECC4  F00E         	call	___flge	;wreg free
  1182  0008E0  A0D8               	btfss	status,0,c
  1183  0008E2  EF75  F004         	goto	u3291
  1184  0008E6  EF77  F004         	goto	u3290
  1185  0008EA                     u3291:
  1186  0008EA  EF2B  F004         	goto	l3213
  1187  0008EE                     u3290:
  1188  0008EE                     l3223:
  1189                           
  1190                           ;main_PF.c: 70:                 aux = 2;
  1191  0008EE  0E00               	movlw	0
  1192  0008F0  0100               	movlb	0	; () banked
  1193  0008F2  6FEF               	movwf	(main@aux+1)& (0+255),b
  1194  0008F4  0E02               	movlw	2
  1195  0008F6  6FEE               	movwf	main@aux& (0+255),b
  1196  0008F8                     l3225:
  1197                           
  1198                           ; BSR set to: 0
  1199                           ;main_PF.c: 72:             if (((tecla) & (1<<(7)))) {
  1200  0008F8  AFF0               	btfss	main@tecla& (0+255),7,b
  1201  0008FA  EF81  F004         	goto	u3301
  1202  0008FE  EF83  F004         	goto	u3300
  1203  000902                     u3301:
  1204  000902  EFF7  F004         	goto	l3245
  1205  000906                     u3300:
  1206  000906                     
  1207                           ; BSR set to: 0
  1208                           ;main_PF.c: 73:                 for (tempoSSD = 0; tempoSSD < 300; tempoSSD++) {
  1209  000906  0E00               	movlw	0
  1210  000908  6FF2               	movwf	main@tempoSSD& (0+255),b
  1211  00090A  0E00               	movlw	0
  1212  00090C  6FF3               	movwf	(main@tempoSSD+1)& (0+255),b
  1213  00090E  0E00               	movlw	0
  1214  000910  6FF4               	movwf	(main@tempoSSD+2)& (0+255),b
  1215  000912  0E00               	movlw	0
  1216  000914  6FF5               	movwf	(main@tempoSSD+3)& (0+255),b
  1217  000916                     
  1218                           ; BSR set to: 0
  1219  000916  C0F2  F031         	movff	main@tempoSSD,___flge@ff1
  1220  00091A  C0F3  F032         	movff	main@tempoSSD+1,___flge@ff1+1
  1221  00091E  C0F4  F033         	movff	main@tempoSSD+2,___flge@ff1+2
  1222  000922  C0F5  F034         	movff	main@tempoSSD+3,___flge@ff1+3
  1223  000926  0E00               	movlw	0
  1224  000928  6E35               	movwf	___flge@ff2^0,c
  1225  00092A  0E00               	movlw	0
  1226  00092C  6E36               	movwf	(___flge@ff2+1)^0,c
  1227  00092E  0E96               	movlw	150
  1228  000930  6E37               	movwf	(___flge@ff2+2)^0,c
  1229  000932  0E43               	movlw	67
  1230  000934  6E38               	movwf	(___flge@ff2+3)^0,c
  1231  000936  ECC4  F00E         	call	___flge	;wreg free
  1232  00093A  A0D8               	btfss	status,0,c
  1233  00093C  EFA2  F004         	goto	u3311
  1234  000940  EFA4  F004         	goto	u3310
  1235  000944                     u3311:
  1236  000944  EFA6  F004         	goto	l3233
  1237  000948                     u3310:
  1238  000948  EFF2  F004         	goto	l3243
  1239  00094C                     l3233:
  1240                           
  1241                           ;main_PF.c: 74:                     ssdDigit(0, 0);
  1242  00094C  0E00               	movlw	0
  1243  00094E  6E31               	movwf	ssdDigit@pos^0,c
  1244  000950  0E00               	movlw	0
  1245  000952  EC5A  F011         	call	_ssdDigit
  1246                           
  1247                           ;main_PF.c: 75:                     ssdDigit(4, 1);
  1248  000956  0E01               	movlw	1
  1249  000958  6E31               	movwf	ssdDigit@pos^0,c
  1250  00095A  0E04               	movlw	4
  1251  00095C  EC5A  F011         	call	_ssdDigit
  1252                           
  1253                           ;main_PF.c: 76:                     ssdDigit(0, 2);
  1254  000960  0E02               	movlw	2
  1255  000962  6E31               	movwf	ssdDigit@pos^0,c
  1256  000964  0E00               	movlw	0
  1257  000966  EC5A  F011         	call	_ssdDigit
  1258                           
  1259                           ;main_PF.c: 77:                     ssdDigit(0, 3);
  1260  00096A  0E03               	movlw	3
  1261  00096C  6E31               	movwf	ssdDigit@pos^0,c
  1262  00096E  0E00               	movlw	0
  1263  000970  EC5A  F011         	call	_ssdDigit
  1264  000974                     
  1265                           ;main_PF.c: 78:                     ssdUpdate();
  1266  000974  EC11  F00D         	call	_ssdUpdate	;wreg free
  1267  000978                     
  1268                           ;main_PF.c: 79:                     tempo(5);
  1269  000978  0E05               	movlw	5
  1270  00097A  EC2E  F012         	call	_tempo
  1271  00097E                     
  1272                           ;main_PF.c: 80:                 }
  1273  00097E  C0F2  F031         	movff	main@tempoSSD,___fladd@b
  1274  000982  C0F3  F032         	movff	main@tempoSSD+1,___fladd@b+1
  1275  000986  C0F4  F033         	movff	main@tempoSSD+2,___fladd@b+2
  1276  00098A  C0F5  F034         	movff	main@tempoSSD+3,___fladd@b+3
  1277  00098E  0E00               	movlw	0
  1278  000990  6E35               	movwf	___fladd@a^0,c
  1279  000992  0E00               	movlw	0
  1280  000994  6E36               	movwf	(___fladd@a+1)^0,c
  1281  000996  0E80               	movlw	128
  1282  000998  6E37               	movwf	(___fladd@a+2)^0,c
  1283  00099A  0E3F               	movlw	63
  1284  00099C  6E38               	movwf	(___fladd@a+3)^0,c
  1285  00099E  ECF8  F006         	call	___fladd	;wreg free
  1286  0009A2  C031  F0F2         	movff	?___fladd,main@tempoSSD
  1287  0009A6  C032  F0F3         	movff	?___fladd+1,main@tempoSSD+1
  1288  0009AA  C033  F0F4         	movff	?___fladd+2,main@tempoSSD+2
  1289  0009AE  C034  F0F5         	movff	?___fladd+3,main@tempoSSD+3
  1290  0009B2  C0F2  F031         	movff	main@tempoSSD,___flge@ff1
  1291  0009B6  C0F3  F032         	movff	main@tempoSSD+1,___flge@ff1+1
  1292  0009BA  C0F4  F033         	movff	main@tempoSSD+2,___flge@ff1+2
  1293  0009BE  C0F5  F034         	movff	main@tempoSSD+3,___flge@ff1+3
  1294  0009C2  0E00               	movlw	0
  1295  0009C4  6E35               	movwf	___flge@ff2^0,c
  1296  0009C6  0E00               	movlw	0
  1297  0009C8  6E36               	movwf	(___flge@ff2+1)^0,c
  1298  0009CA  0E96               	movlw	150
  1299  0009CC  6E37               	movwf	(___flge@ff2+2)^0,c
  1300  0009CE  0E43               	movlw	67
  1301  0009D0  6E38               	movwf	(___flge@ff2+3)^0,c
  1302  0009D2  ECC4  F00E         	call	___flge	;wreg free
  1303  0009D6  A0D8               	btfss	status,0,c
  1304  0009D8  EFF0  F004         	goto	u3321
  1305  0009DC  EFF2  F004         	goto	u3320
  1306  0009E0                     u3321:
  1307  0009E0  EFA6  F004         	goto	l3233
  1308  0009E4                     u3320:
  1309  0009E4                     l3243:
  1310                           
  1311                           ;main_PF.c: 81:                 aux = 2;
  1312  0009E4  0E00               	movlw	0
  1313  0009E6  0100               	movlb	0	; () banked
  1314  0009E8  6FEF               	movwf	(main@aux+1)& (0+255),b
  1315  0009EA  0E02               	movlw	2
  1316  0009EC  6FEE               	movwf	main@aux& (0+255),b
  1317  0009EE                     l3245:
  1318                           
  1319                           ; BSR set to: 0
  1320                           ;main_PF.c: 84:             if (((tecla) & (1<<(11)))) {
  1321  0009EE  A7F1               	btfss	(main@tecla+1)& (0+255),3,b
  1322  0009F0  EFFC  F004         	goto	u3331
  1323  0009F4  EFFE  F004         	goto	u3330
  1324  0009F8                     u3331:
  1325  0009F8  EF72  F005         	goto	l3265
  1326  0009FC                     u3330:
  1327  0009FC                     
  1328                           ; BSR set to: 0
  1329                           ;main_PF.c: 85:                 for (tempoSSD = 0; tempoSSD < 300; tempoSSD++) {
  1330  0009FC  0E00               	movlw	0
  1331  0009FE  6FF2               	movwf	main@tempoSSD& (0+255),b
  1332  000A00  0E00               	movlw	0
  1333  000A02  6FF3               	movwf	(main@tempoSSD+1)& (0+255),b
  1334  000A04  0E00               	movlw	0
  1335  000A06  6FF4               	movwf	(main@tempoSSD+2)& (0+255),b
  1336  000A08  0E00               	movlw	0
  1337  000A0A  6FF5               	movwf	(main@tempoSSD+3)& (0+255),b
  1338  000A0C                     
  1339                           ; BSR set to: 0
  1340  000A0C  C0F2  F031         	movff	main@tempoSSD,___flge@ff1
  1341  000A10  C0F3  F032         	movff	main@tempoSSD+1,___flge@ff1+1
  1342  000A14  C0F4  F033         	movff	main@tempoSSD+2,___flge@ff1+2
  1343  000A18  C0F5  F034         	movff	main@tempoSSD+3,___flge@ff1+3
  1344  000A1C  0E00               	movlw	0
  1345  000A1E  6E35               	movwf	___flge@ff2^0,c
  1346  000A20  0E00               	movlw	0
  1347  000A22  6E36               	movwf	(___flge@ff2+1)^0,c
  1348  000A24  0E96               	movlw	150
  1349  000A26  6E37               	movwf	(___flge@ff2+2)^0,c
  1350  000A28  0E43               	movlw	67
  1351  000A2A  6E38               	movwf	(___flge@ff2+3)^0,c
  1352  000A2C  ECC4  F00E         	call	___flge	;wreg free
  1353  000A30  A0D8               	btfss	status,0,c
  1354  000A32  EF1D  F005         	goto	u3341
  1355  000A36  EF1F  F005         	goto	u3340
  1356  000A3A                     u3341:
  1357  000A3A  EF21  F005         	goto	l3253
  1358  000A3E                     u3340:
  1359  000A3E  EF6D  F005         	goto	l3263
  1360  000A42                     l3253:
  1361                           
  1362                           ;main_PF.c: 86:                     ssdDigit(0, 0);
  1363  000A42  0E00               	movlw	0
  1364  000A44  6E31               	movwf	ssdDigit@pos^0,c
  1365  000A46  0E00               	movlw	0
  1366  000A48  EC5A  F011         	call	_ssdDigit
  1367                           
  1368                           ;main_PF.c: 87:                     ssdDigit(5, 1);
  1369  000A4C  0E01               	movlw	1
  1370  000A4E  6E31               	movwf	ssdDigit@pos^0,c
  1371  000A50  0E05               	movlw	5
  1372  000A52  EC5A  F011         	call	_ssdDigit
  1373                           
  1374                           ;main_PF.c: 88:                     ssdDigit(0, 2);
  1375  000A56  0E02               	movlw	2
  1376  000A58  6E31               	movwf	ssdDigit@pos^0,c
  1377  000A5A  0E00               	movlw	0
  1378  000A5C  EC5A  F011         	call	_ssdDigit
  1379                           
  1380                           ;main_PF.c: 89:                     ssdDigit(0, 3);
  1381  000A60  0E03               	movlw	3
  1382  000A62  6E31               	movwf	ssdDigit@pos^0,c
  1383  000A64  0E00               	movlw	0
  1384  000A66  EC5A  F011         	call	_ssdDigit
  1385  000A6A                     
  1386                           ;main_PF.c: 90:                     ssdUpdate();
  1387  000A6A  EC11  F00D         	call	_ssdUpdate	;wreg free
  1388  000A6E                     
  1389                           ;main_PF.c: 91:                     tempo(5);
  1390  000A6E  0E05               	movlw	5
  1391  000A70  EC2E  F012         	call	_tempo
  1392  000A74                     
  1393                           ;main_PF.c: 92:                 }
  1394  000A74  C0F2  F031         	movff	main@tempoSSD,___fladd@b
  1395  000A78  C0F3  F032         	movff	main@tempoSSD+1,___fladd@b+1
  1396  000A7C  C0F4  F033         	movff	main@tempoSSD+2,___fladd@b+2
  1397  000A80  C0F5  F034         	movff	main@tempoSSD+3,___fladd@b+3
  1398  000A84  0E00               	movlw	0
  1399  000A86  6E35               	movwf	___fladd@a^0,c
  1400  000A88  0E00               	movlw	0
  1401  000A8A  6E36               	movwf	(___fladd@a+1)^0,c
  1402  000A8C  0E80               	movlw	128
  1403  000A8E  6E37               	movwf	(___fladd@a+2)^0,c
  1404  000A90  0E3F               	movlw	63
  1405  000A92  6E38               	movwf	(___fladd@a+3)^0,c
  1406  000A94  ECF8  F006         	call	___fladd	;wreg free
  1407  000A98  C031  F0F2         	movff	?___fladd,main@tempoSSD
  1408  000A9C  C032  F0F3         	movff	?___fladd+1,main@tempoSSD+1
  1409  000AA0  C033  F0F4         	movff	?___fladd+2,main@tempoSSD+2
  1410  000AA4  C034  F0F5         	movff	?___fladd+3,main@tempoSSD+3
  1411  000AA8  C0F2  F031         	movff	main@tempoSSD,___flge@ff1
  1412  000AAC  C0F3  F032         	movff	main@tempoSSD+1,___flge@ff1+1
  1413  000AB0  C0F4  F033         	movff	main@tempoSSD+2,___flge@ff1+2
  1414  000AB4  C0F5  F034         	movff	main@tempoSSD+3,___flge@ff1+3
  1415  000AB8  0E00               	movlw	0
  1416  000ABA  6E35               	movwf	___flge@ff2^0,c
  1417  000ABC  0E00               	movlw	0
  1418  000ABE  6E36               	movwf	(___flge@ff2+1)^0,c
  1419  000AC0  0E96               	movlw	150
  1420  000AC2  6E37               	movwf	(___flge@ff2+2)^0,c
  1421  000AC4  0E43               	movlw	67
  1422  000AC6  6E38               	movwf	(___flge@ff2+3)^0,c
  1423  000AC8  ECC4  F00E         	call	___flge	;wreg free
  1424  000ACC  A0D8               	btfss	status,0,c
  1425  000ACE  EF6B  F005         	goto	u3351
  1426  000AD2  EF6D  F005         	goto	u3350
  1427  000AD6                     u3351:
  1428  000AD6  EF21  F005         	goto	l3253
  1429  000ADA                     u3350:
  1430  000ADA                     l3263:
  1431                           
  1432                           ;main_PF.c: 93:                 aux = 2;
  1433  000ADA  0E00               	movlw	0
  1434  000ADC  0100               	movlb	0	; () banked
  1435  000ADE  6FEF               	movwf	(main@aux+1)& (0+255),b
  1436  000AE0  0E02               	movlw	2
  1437  000AE2  6FEE               	movwf	main@aux& (0+255),b
  1438  000AE4                     l3265:
  1439                           
  1440                           ;main_PF.c: 55:     while (aux == 1) {
  1441  000AE4  0100               	movlb	0	; () banked
  1442  000AE6  05EE               	decf	main@aux& (0+255),w,b
  1443  000AE8  11EF               	iorwf	(main@aux+1)& (0+255),w,b
  1444  000AEA  B4D8               	btfsc	status,2,c
  1445  000AEC  EF7A  F005         	goto	u3361
  1446  000AF0  EF7C  F005         	goto	u3360
  1447  000AF4                     u3361:
  1448  000AF4  EFE9  F003         	goto	l3199
  1449  000AF8                     u3360:
  1450  000AF8                     
  1451                           ; BSR set to: 0
  1452                           ;main_PF.c: 98:     PORTD = 0x00;
  1453  000AF8  0E00               	movlw	0
  1454  000AFA  6E83               	movwf	131,c	;volatile
  1455  000AFC                     
  1456                           ; BSR set to: 0
  1457                           ;main_PF.c: 99:     clear(0, 4, 0, 16);
  1458  000AFC  0E00               	movlw	0
  1459  000AFE  6E3D               	movwf	(clear@xi+1)^0,c
  1460  000B00  0E00               	movlw	0
  1461  000B02  6E3C               	movwf	clear@xi^0,c
  1462  000B04  0E00               	movlw	0
  1463  000B06  6E3F               	movwf	(clear@xf+1)^0,c
  1464  000B08  0E04               	movlw	4
  1465  000B0A  6E3E               	movwf	clear@xf^0,c
  1466  000B0C  0E00               	movlw	0
  1467  000B0E  6E41               	movwf	(clear@yi+1)^0,c
  1468  000B10  0E00               	movlw	0
  1469  000B12  6E40               	movwf	clear@yi^0,c
  1470  000B14  0E00               	movlw	0
  1471  000B16  6E43               	movwf	(clear@yf+1)^0,c
  1472  000B18  0E10               	movlw	16
  1473  000B1A  6E42               	movwf	clear@yf^0,c
  1474  000B1C  EC88  F010         	call	_clear	;wreg free
  1475  000B20                     
  1476                           ;main_PF.c: 100:     lcdPosition(0, 3);
  1477  000B20  0E03               	movlw	3
  1478  000B22  6E39               	movwf	lcdPosition@coluna^0,c
  1479  000B24  0E00               	movlw	0
  1480  000B26  ECF5  F010         	call	_lcdPosition
  1481  000B2A                     
  1482                           ;main_PF.c: 101:     lcd_str("Cremosidade");
  1483  000B2A  0E83               	movlw	low STR_4
  1484  000B2C  6E39               	movwf	lcd_str@str^0,c
  1485  000B2E  0E06               	movlw	high STR_4
  1486  000B30  6E3A               	movwf	(lcd_str@str+1)^0,c
  1487  000B32  EC06  F012         	call	_lcd_str	;wreg free
  1488  000B36                     
  1489                           ;main_PF.c: 102:     lcdPosition(1, 0);
  1490  000B36  0E00               	movlw	0
  1491  000B38  6E39               	movwf	lcdPosition@coluna^0,c
  1492  000B3A  0E01               	movlw	1
  1493  000B3C  ECF5  F010         	call	_lcdPosition
  1494  000B40                     
  1495                           ;main_PF.c: 103:     lcd_str("[0%]--------[5%]");
  1496  000B40  0E11               	movlw	low STR_5
  1497  000B42  6E39               	movwf	lcd_str@str^0,c
  1498  000B44  0E06               	movlw	high STR_5
  1499  000B46  6E3A               	movwf	(lcd_str@str+1)^0,c
  1500  000B48  EC06  F012         	call	_lcd_str	;wreg free
  1501  000B4C                     
  1502                           ;main_PF.c: 105:     for (i = 0; i < 100; i++) {
  1503  000B4C  0E00               	movlw	0
  1504  000B4E  0100               	movlb	0	; () banked
  1505  000B50  6FF6               	movwf	main@i& (0+255),b
  1506  000B52                     l3281:
  1507                           
  1508                           ; BSR set to: 0
  1509  000B52  0E63               	movlw	99
  1510  000B54  65F6               	cpfsgt	main@i& (0+255),b
  1511  000B56  EFAF  F005         	goto	u3371
  1512  000B5A  EFB1  F005         	goto	u3370
  1513  000B5E                     u3371:
  1514  000B5E  EFB3  F005         	goto	l3285
  1515  000B62                     u3370:
  1516  000B62  EFF0  F005         	goto	l3305
  1517  000B66                     l3285:
  1518                           
  1519                           ; BSR set to: 0
  1520                           ;main_PF.c: 106:         tmp = (adc_amostra(0)*10) / 204;
  1521  000B66  0E00               	movlw	0
  1522  000B68  EC46  F00F         	call	_adc_amostra
  1523  000B6C  C031  F038         	movff	?_adc_amostra,___wmul@multiplier
  1524  000B70  C032  F039         	movff	?_adc_amostra+1,___wmul@multiplier+1
  1525  000B74  0E00               	movlw	0
  1526  000B76  6E3B               	movwf	(___wmul@multiplicand+1)^0,c
  1527  000B78  0E0A               	movlw	10
  1528  000B7A  6E3A               	movwf	___wmul@multiplicand^0,c
  1529  000B7C  EC88  F012         	call	___wmul	;wreg free
  1530  000B80  C038  F03E         	movff	?___wmul,___lwdiv@dividend
  1531  000B84  C039  F03F         	movff	?___wmul+1,___lwdiv@dividend+1
  1532  000B88  0E00               	movlw	0
  1533  000B8A  6E41               	movwf	(___lwdiv@divisor+1)^0,c
  1534  000B8C  0ECC               	movlw	204
  1535  000B8E  6E40               	movwf	___lwdiv@divisor^0,c
  1536  000B90  EC4E  F010         	call	___lwdiv	;wreg free
  1537  000B94  503E               	movf	?___lwdiv^0,w,c
  1538  000B96  0100               	movlb	0	; () banked
  1539  000B98  6FED               	movwf	main@tmp& (0+255),b
  1540  000B9A                     
  1541                           ; BSR set to: 0
  1542                           ;main_PF.c: 107:         itoa(tmp, str);
  1543  000B9A  C0ED  F045         	movff	main@tmp,itoa@val
  1544  000B9E  6A46               	clrf	(itoa@val+1)^0,c
  1545  000BA0  0EE7               	movlw	low main@str
  1546  000BA2  6E47               	movwf	itoa@str^0,c
  1547  000BA4  0E00               	movlw	high main@str
  1548  000BA6  6E48               	movwf	(itoa@str+1)^0,c
  1549  000BA8  EC40  F00E         	call	_itoa	;wreg free
  1550  000BAC                     
  1551                           ;main_PF.c: 108:         lcdPosition(2, 6);
  1552  000BAC  0E06               	movlw	6
  1553  000BAE  6E39               	movwf	lcdPosition@coluna^0,c
  1554  000BB0  0E02               	movlw	2
  1555  000BB2  ECF5  F010         	call	_lcdPosition
  1556  000BB6                     
  1557                           ;main_PF.c: 109:         lcdData(str[3]);
  1558  000BB6  0100               	movlb	0	; () banked
  1559  000BB8  51EA               	movf	(main@str+3)& (0+255),w,b
  1560  000BBA  ECDC  F011         	call	_lcdData
  1561  000BBE                     
  1562                           ;main_PF.c: 110:         lcdData(',');
  1563  000BBE  0E2C               	movlw	44
  1564  000BC0  ECDC  F011         	call	_lcdData
  1565  000BC4                     
  1566                           ;main_PF.c: 111:         lcdData(str[4]);
  1567  000BC4  0100               	movlb	0	; () banked
  1568  000BC6  51EB               	movf	(main@str+4)& (0+255),w,b
  1569  000BC8  ECDC  F011         	call	_lcdData
  1570  000BCC                     
  1571                           ;main_PF.c: 112:         lcdData('%');
  1572  000BCC  0E25               	movlw	37
  1573  000BCE  ECDC  F011         	call	_lcdData
  1574  000BD2                     
  1575                           ;main_PF.c: 113:         tempo(250);
  1576  000BD2  0EFA               	movlw	250
  1577  000BD4  EC2E  F012         	call	_tempo
  1578  000BD8                     
  1579                           ;main_PF.c: 114:     }
  1580  000BD8  0100               	movlb	0	; () banked
  1581  000BDA  2BF6               	incf	main@i& (0+255),f,b
  1582  000BDC  EFA9  F005         	goto	l3281
  1583  000BE0                     l3305:
  1584                           
  1585                           ; BSR set to: 0
  1586                           ;main_PF.c: 115:     clear(0, 4, 0, 16);
  1587  000BE0  0E00               	movlw	0
  1588  000BE2  6E3D               	movwf	(clear@xi+1)^0,c
  1589  000BE4  0E00               	movlw	0
  1590  000BE6  6E3C               	movwf	clear@xi^0,c
  1591  000BE8  0E00               	movlw	0
  1592  000BEA  6E3F               	movwf	(clear@xf+1)^0,c
  1593  000BEC  0E04               	movlw	4
  1594  000BEE  6E3E               	movwf	clear@xf^0,c
  1595  000BF0  0E00               	movlw	0
  1596  000BF2  6E41               	movwf	(clear@yi+1)^0,c
  1597  000BF4  0E00               	movlw	0
  1598  000BF6  6E40               	movwf	clear@yi^0,c
  1599  000BF8  0E00               	movlw	0
  1600  000BFA  6E43               	movwf	(clear@yf+1)^0,c
  1601  000BFC  0E10               	movlw	16
  1602  000BFE  6E42               	movwf	clear@yf^0,c
  1603  000C00  EC88  F010         	call	_clear	;wreg free
  1604                           
  1605                           ;main_PF.c: 117:     lcdPosition(0, 0);
  1606  000C04  0E00               	movlw	0
  1607  000C06  6E39               	movwf	lcdPosition@coluna^0,c
  1608  000C08  0E00               	movlw	0
  1609  000C0A  ECF5  F010         	call	_lcdPosition
  1610  000C0E                     
  1611                           ;main_PF.c: 118:     lcd_str("Aguarde");
  1612  000C0E  0EA4               	movlw	low STR_6
  1613  000C10  6E39               	movwf	lcd_str@str^0,c
  1614  000C12  0E06               	movlw	high STR_6
  1615  000C14  6E3A               	movwf	(lcd_str@str+1)^0,c
  1616  000C16  EC06  F012         	call	_lcd_str	;wreg free
  1617  000C1A                     
  1618                           ;main_PF.c: 121:     if (str[3] == '1') {
  1619  000C1A  0E31               	movlw	49
  1620  000C1C  0100               	movlb	0	; () banked
  1621  000C1E  19EA               	xorwf	(main@str+3)& (0+255),w,b
  1622  000C20  A4D8               	btfss	status,2,c
  1623  000C22  EF15  F006         	goto	u3381
  1624  000C26  EF17  F006         	goto	u3380
  1625  000C2A                     u3381:
  1626  000C2A  EF39  F006         	goto	l3325
  1627  000C2E                     u3380:
  1628  000C2E                     
  1629                           ; BSR set to: 0
  1630                           ;main_PF.c: 122:         lcdPosition(2, 0);
  1631  000C2E  0E00               	movlw	0
  1632  000C30  6E39               	movwf	lcdPosition@coluna^0,c
  1633  000C32  0E02               	movlw	2
  1634  000C34  ECF5  F010         	call	_lcdPosition
  1635  000C38                     
  1636                           ;main_PF.c: 123:         lcd_str("Rapidamente");
  1637  000C38  0E8F               	movlw	low STR_7
  1638  000C3A  6E39               	movwf	lcd_str@str^0,c
  1639  000C3C  0E06               	movlw	high STR_7
  1640  000C3E  6E3A               	movwf	(lcd_str@str+1)^0,c
  1641  000C40  EC06  F012         	call	_lcd_str	;wreg free
  1642  000C44                     
  1643                           ;main_PF.c: 124:         lcdPosition(3, 0);
  1644  000C44  0E00               	movlw	0
  1645  000C46  6E39               	movwf	lcdPosition@coluna^0,c
  1646  000C48  0E03               	movlw	3
  1647  000C4A  ECF5  F010         	call	_lcdPosition
  1648                           
  1649                           ;main_PF.c: 125:         lcd_str("estara pronto");
  1650  000C4E  0E4E               	movlw	low STR_8
  1651  000C50  6E39               	movwf	lcd_str@str^0,c
  1652  000C52  0E06               	movlw	high STR_8
  1653  000C54  6E3A               	movwf	(lcd_str@str+1)^0,c
  1654  000C56  EC06  F012         	call	_lcd_str	;wreg free
  1655  000C5A                     
  1656                           ;main_PF.c: 127:         PORTCbits.RC5 = 0;
  1657  000C5A  9A82               	bcf	130,5,c	;volatile
  1658  000C5C                     
  1659                           ;main_PF.c: 128:         pwmSet(50);
  1660  000C5C  0E32               	movlw	50
  1661  000C5E  ECBF  F010         	call	_pwmSet
  1662  000C62                     
  1663                           ;main_PF.c: 129:         tempo(250);
  1664  000C62  0EFA               	movlw	250
  1665  000C64  EC2E  F012         	call	_tempo
  1666  000C68                     
  1667                           ;main_PF.c: 130:         tempo(250);
  1668  000C68  0EFA               	movlw	250
  1669  000C6A  EC2E  F012         	call	_tempo
  1670                           
  1671                           ;main_PF.c: 131:     } else {
  1672  000C6E  EF59  F006         	goto	l3339
  1673  000C72                     l3325:
  1674                           
  1675                           ; BSR set to: 0
  1676                           ;main_PF.c: 132:         lcdPosition(2, 0);
  1677  000C72  0E00               	movlw	0
  1678  000C74  6E39               	movwf	lcdPosition@coluna^0,c
  1679  000C76  0E02               	movlw	2
  1680  000C78  ECF5  F010         	call	_lcdPosition
  1681  000C7C                     
  1682                           ;main_PF.c: 133:         lcd_str("Estara pronto");
  1683  000C7C  0E40               	movlw	low STR_9
  1684  000C7E  6E39               	movwf	lcd_str@str^0,c
  1685  000C80  0E06               	movlw	high STR_9
  1686  000C82  6E3A               	movwf	(lcd_str@str+1)^0,c
  1687  000C84  EC06  F012         	call	_lcd_str	;wreg free
  1688  000C88                     
  1689                           ;main_PF.c: 134:         lcdPosition(3, 0);
  1690  000C88  0E00               	movlw	0
  1691  000C8A  6E39               	movwf	lcdPosition@coluna^0,c
  1692  000C8C  0E03               	movlw	3
  1693  000C8E  ECF5  F010         	call	_lcdPosition
  1694                           
  1695                           ;main_PF.c: 135:         lcd_str("em instantes...");
  1696  000C92  0E22               	movlw	low STR_10
  1697  000C94  6E39               	movwf	lcd_str@str^0,c
  1698  000C96  0E06               	movlw	high STR_10
  1699  000C98  6E3A               	movwf	(lcd_str@str+1)^0,c
  1700  000C9A  EC06  F012         	call	_lcd_str	;wreg free
  1701  000C9E                     
  1702                           ;main_PF.c: 137:         PORTCbits.RC5 = 0;
  1703  000C9E  9A82               	bcf	130,5,c	;volatile
  1704  000CA0                     
  1705                           ;main_PF.c: 138:         pwmSet(80);
  1706  000CA0  0E50               	movlw	80
  1707  000CA2  ECBF  F010         	call	_pwmSet
  1708  000CA6                     
  1709                           ;main_PF.c: 139:         tempo(250);
  1710  000CA6  0EFA               	movlw	250
  1711  000CA8  EC2E  F012         	call	_tempo
  1712  000CAC                     
  1713                           ;main_PF.c: 140:         tempo(250);
  1714  000CAC  0EFA               	movlw	250
  1715  000CAE  EC2E  F012         	call	_tempo
  1716  000CB2                     l3339:
  1717                           
  1718                           ;main_PF.c: 144:     TRISCbits.TRISC0 = 0;
  1719  000CB2  9094               	bcf	148,0,c	;volatile
  1720  000CB4                     
  1721                           ;main_PF.c: 145:     for (i = 0; i < 10; i++) {
  1722  000CB4  0E00               	movlw	0
  1723  000CB6  0100               	movlb	0	; () banked
  1724  000CB8  6FF6               	movwf	main@i& (0+255),b
  1725  000CBA                     l3343:
  1726                           
  1727                           ; BSR set to: 0
  1728  000CBA  0E09               	movlw	9
  1729  000CBC  65F6               	cpfsgt	main@i& (0+255),b
  1730  000CBE  EF63  F006         	goto	u3391
  1731  000CC2  EF65  F006         	goto	u3390
  1732  000CC6                     u3391:
  1733  000CC6  EF67  F006         	goto	l3347
  1734  000CCA                     u3390:
  1735  000CCA  EF72  F006         	goto	l3357
  1736  000CCE                     l3347:
  1737                           
  1738                           ; BSR set to: 0
  1739                           ;main_PF.c: 146:         PORTCbits.RC0 ^= 1;
  1740  000CCE  7082               	btg	130,0,c	;volatile
  1741  000CD0                     
  1742                           ; BSR set to: 0
  1743                           ;main_PF.c: 147:         tempo(250);
  1744  000CD0  0EFA               	movlw	250
  1745  000CD2  EC2E  F012         	call	_tempo
  1746  000CD6                     
  1747                           ;main_PF.c: 148:         tempo(250);
  1748  000CD6  0EFA               	movlw	250
  1749  000CD8  EC2E  F012         	call	_tempo
  1750  000CDC                     
  1751                           ;main_PF.c: 149:     }
  1752  000CDC  0100               	movlb	0	; () banked
  1753  000CDE  2BF6               	incf	main@i& (0+255),f,b
  1754  000CE0  EF5D  F006         	goto	l3343
  1755  000CE4                     l3357:
  1756                           
  1757                           ; BSR set to: 0
  1758                           ;main_PF.c: 151:     PORTD = 0x01;
  1759  000CE4  0E01               	movlw	1
  1760  000CE6  6E83               	movwf	131,c	;volatile
  1761  000CE8                     
  1762                           ; BSR set to: 0
  1763                           ;main_PF.c: 152:     LigarLed(0x01, str[3]);
  1764  000CE8  C0EA  F031         	movff	main@str+3,LigarLed@pot
  1765  000CEC  0E01               	movlw	1
  1766  000CEE  EC63  F00C         	call	_LigarLed
  1767  000CF2                     
  1768                           ;main_PF.c: 154:     clear(0, 4, 0, 16);
  1769  000CF2  0E00               	movlw	0
  1770  000CF4  6E3D               	movwf	(clear@xi+1)^0,c
  1771  000CF6  0E00               	movlw	0
  1772  000CF8  6E3C               	movwf	clear@xi^0,c
  1773  000CFA  0E00               	movlw	0
  1774  000CFC  6E3F               	movwf	(clear@xf+1)^0,c
  1775  000CFE  0E04               	movlw	4
  1776  000D00  6E3E               	movwf	clear@xf^0,c
  1777  000D02  0E00               	movlw	0
  1778  000D04  6E41               	movwf	(clear@yi+1)^0,c
  1779  000D06  0E00               	movlw	0
  1780  000D08  6E40               	movwf	clear@yi^0,c
  1781  000D0A  0E00               	movlw	0
  1782  000D0C  6E43               	movwf	(clear@yf+1)^0,c
  1783  000D0E  0E10               	movlw	16
  1784  000D10  6E42               	movwf	clear@yf^0,c
  1785  000D12  EC88  F010         	call	_clear	;wreg free
  1786  000D16                     
  1787                           ;main_PF.c: 155:     PORTCbits.RC0 = 0;
  1788  000D16  9082               	bcf	130,0,c	;volatile
  1789                           
  1790                           ;main_PF.c: 156:     PORTD = 0x00;
  1791  000D18  0E00               	movlw	0
  1792  000D1A  6E83               	movwf	131,c	;volatile
  1793  000D1C                     
  1794                           ;main_PF.c: 159:     pwmSet(0);
  1795  000D1C  0E00               	movlw	0
  1796  000D1E  ECBF  F010         	call	_pwmSet
  1797  000D22                     
  1798                           ;main_PF.c: 161:     TRISEbits.TRISE0 = 0;
  1799  000D22  9096               	bcf	150,0,c	;volatile
  1800  000D24                     
  1801                           ;main_PF.c: 162:     for (i = 0; i < 10; i++) {
  1802  000D24  0E00               	movlw	0
  1803  000D26  0100               	movlb	0	; () banked
  1804  000D28  6FF6               	movwf	main@i& (0+255),b
  1805  000D2A                     l3371:
  1806                           
  1807                           ; BSR set to: 0
  1808  000D2A  0E09               	movlw	9
  1809  000D2C  65F6               	cpfsgt	main@i& (0+255),b
  1810  000D2E  EF9B  F006         	goto	u3401
  1811  000D32  EF9D  F006         	goto	u3400
  1812  000D36                     u3401:
  1813  000D36  EF9F  F006         	goto	l3375
  1814  000D3A                     u3400:
  1815  000D3A  EFAA  F006         	goto	l271
  1816  000D3E                     l3375:
  1817                           
  1818                           ; BSR set to: 0
  1819                           ;main_PF.c: 163:         PORTEbits.RE0 ^= 1;
  1820  000D3E  7084               	btg	132,0,c	;volatile
  1821  000D40                     
  1822                           ; BSR set to: 0
  1823                           ;main_PF.c: 164:         tempo(250);
  1824  000D40  0EFA               	movlw	250
  1825  000D42  EC2E  F012         	call	_tempo
  1826  000D46                     
  1827                           ;main_PF.c: 165:         tempo(250);
  1828  000D46  0EFA               	movlw	250
  1829  000D48  EC2E  F012         	call	_tempo
  1830  000D4C                     
  1831                           ;main_PF.c: 166:     }
  1832  000D4C  0100               	movlb	0	; () banked
  1833  000D4E  2BF6               	incf	main@i& (0+255),f,b
  1834  000D50  EF95  F006         	goto	l3371
  1835  000D54                     l271:
  1836                           
  1837                           ; BSR set to: 0
  1838                           ;main_PF.c: 167:     PORTEbits.RE0 = 0;
  1839  000D54  9084               	bcf	132,0,c	;volatile
  1840  000D56                     
  1841                           ; BSR set to: 0
  1842                           ;main_PF.c: 170:     lcdPosition(0, 2);
  1843  000D56  0E02               	movlw	2
  1844  000D58  6E39               	movwf	lcdPosition@coluna^0,c
  1845  000D5A  0E00               	movlw	0
  1846  000D5C  ECF5  F010         	call	_lcdPosition
  1847  000D60                     
  1848                           ;main_PF.c: 171:     lcd_str("Volte sempre");
  1849  000D60  0E69               	movlw	low STR_11
  1850  000D62  6E39               	movwf	lcd_str@str^0,c
  1851  000D64  0E06               	movlw	high STR_11
  1852  000D66  6E3A               	movwf	(lcd_str@str+1)^0,c
  1853  000D68  EC06  F012         	call	_lcd_str	;wreg free
  1854  000D6C                     
  1855                           ;main_PF.c: 172:     lcdCommand(0x40);
  1856  000D6C  0E40               	movlw	64
  1857  000D6E  ECD3  F00F         	call	_lcdCommand
  1858  000D72                     
  1859                           ;main_PF.c: 173:     for (i = 0; i < 32; i++) {
  1860  000D72  0E00               	movlw	0
  1861  000D74  0100               	movlb	0	; () banked
  1862  000D76  6FF6               	movwf	main@i& (0+255),b
  1863  000D78                     l3393:
  1864                           
  1865                           ; BSR set to: 0
  1866  000D78  0E1F               	movlw	31
  1867  000D7A  65F6               	cpfsgt	main@i& (0+255),b
  1868  000D7C  EFC2  F006         	goto	u3411
  1869  000D80  EFC4  F006         	goto	u3410
  1870  000D84                     u3411:
  1871  000D84  EFC6  F006         	goto	l3397
  1872  000D88                     u3410:
  1873  000D88  EFD3  F006         	goto	l3403
  1874  000D8C                     l3397:
  1875                           
  1876                           ; BSR set to: 0
  1877                           ;main_PF.c: 174:         lcdData(desenho[i]);
  1878  000D8C  0E80               	movlw	low main@desenho
  1879  000D8E  25F6               	addwf	main@i& (0+255),w,b
  1880  000D90  6ED9               	movwf	fsr2l,c
  1881  000D92  6ADA               	clrf	fsr2h,c
  1882  000D94  0E00               	movlw	high main@desenho
  1883  000D96  22DA               	addwfc	fsr2h,f,c
  1884  000D98  50DF               	movf	indf2,w,c
  1885  000D9A  ECDC  F011         	call	_lcdData
  1886  000D9E                     
  1887                           ;main_PF.c: 175:     }
  1888  000D9E  0100               	movlb	0	; () banked
  1889  000DA0  2BF6               	incf	main@i& (0+255),f,b
  1890  000DA2  EFBC  F006         	goto	l3393
  1891  000DA6                     l3403:
  1892                           
  1893                           ; BSR set to: 0
  1894                           ;main_PF.c: 176:     lcdPosition(1, 7);
  1895  000DA6  0E07               	movlw	7
  1896  000DA8  6E39               	movwf	lcdPosition@coluna^0,c
  1897  000DAA  0E01               	movlw	1
  1898  000DAC  ECF5  F010         	call	_lcdPosition
  1899                           
  1900                           ;main_PF.c: 177:     lcdData(0);
  1901  000DB0  0E00               	movlw	0
  1902  000DB2  ECDC  F011         	call	_lcdData
  1903                           
  1904                           ;main_PF.c: 178:     lcdData(1);
  1905  000DB6  0E01               	movlw	1
  1906  000DB8  ECDC  F011         	call	_lcdData
  1907                           
  1908                           ;main_PF.c: 179:     lcdPosition(2, 7);
  1909  000DBC  0E07               	movlw	7
  1910  000DBE  6E39               	movwf	lcdPosition@coluna^0,c
  1911  000DC0  0E02               	movlw	2
  1912  000DC2  ECF5  F010         	call	_lcdPosition
  1913                           
  1914                           ;main_PF.c: 180:     lcdData(2);
  1915  000DC6  0E02               	movlw	2
  1916  000DC8  ECDC  F011         	call	_lcdData
  1917                           
  1918                           ;main_PF.c: 181:     lcdData(3);
  1919  000DCC  0E03               	movlw	3
  1920  000DCE  ECDC  F011         	call	_lcdData
  1921                           
  1922                           ;main_PF.c: 182:     lcdPosition(3, 0);
  1923  000DD2  0E00               	movlw	0
  1924  000DD4  6E39               	movwf	lcdPosition@coluna^0,c
  1925  000DD6  0E03               	movlw	3
  1926  000DD8  ECF5  F010         	call	_lcdPosition
  1927  000DDC                     
  1928                           ;main_PF.c: 183:     lcd_str("PRESS.[RESET]");
  1929  000DDC  0E32               	movlw	low STR_12
  1930  000DDE  6E39               	movwf	lcd_str@str^0,c
  1931  000DE0  0E06               	movlw	high STR_12
  1932  000DE2  6E3A               	movwf	(lcd_str@str+1)^0,c
  1933  000DE4  EC06  F012         	call	_lcd_str	;wreg free
  1934  000DE8                     l274:
  1935  000DE8  EFF4  F006         	goto	l274
  1936  000DEC  EF00  F000         	goto	start
  1937  000DF0                     __end_of_main:
  1938                           	callstack 0
  1939                           
  1940 ;; *************** function _tempo *****************
  1941 ;; Defined at:
  1942 ;;		line 49 in file "PF.c"
  1943 ;; Parameters:    Size  Location     Type
  1944 ;;  x               1    wreg     unsigned char 
  1945 ;; Auto vars:     Size  Location     Type
  1946 ;;  x               1    0[COMRAM] unsigned char 
  1947 ;;  k               1    3[COMRAM] unsigned char 
  1948 ;;  j               1    2[COMRAM] unsigned char 
  1949 ;;  i               1    1[COMRAM] unsigned char 
  1950 ;; Return value:  Size  Location     Type
  1951 ;;                  1    wreg      void 
  1952 ;; Registers used:
  1953 ;;		wreg, status,2, status,0
  1954 ;; Tracked objects:
  1955 ;;		On entry : 0/0
  1956 ;;		On exit  : 0/0
  1957 ;;		Unchanged: 0/0
  1958 ;; Data sizes:     COMRAM   BANK0   BANK1   BANK2   BANK3   BANK4   BANK5
  1959 ;;      Params:         0       0       0       0       0       0       0
  1960 ;;      Locals:         4       0       0       0       0       0       0
  1961 ;;      Temps:          0       0       0       0       0       0       0
  1962 ;;      Totals:         4       0       0       0       0       0       0
  1963 ;;Total ram usage:        4 bytes
  1964 ;; Hardware stack levels used: 1
  1965 ;; This function calls:
  1966 ;;		Nothing
  1967 ;; This function is called by:
  1968 ;;		_main
  1969 ;; This function uses a non-reentrant model
  1970 ;;
  1971                           
  1972                           	psect	text1
  1973  00245C                     __ptext1:
  1974                           	callstack 0
  1975  00245C                     _tempo:
  1976                           	callstack 30
  1977                           
  1978                           ;incstack = 0
  1979                           ;tempo@x stored from wreg
  1980  00245C  6E31               	movwf	tempo@x^0,c
  1981  00245E                     
  1982                           ;PF.c: 50:     unsigned char i, j, k;;PF.c: 51:     for (i = 0; i < x; i++) {
  1983  00245E  0E00               	movlw	0
  1984  002460  6E32               	movwf	tempo@i^0,c
  1985  002462  EF4A  F012         	goto	l2753
  1986  002466                     l2731:
  1987                           
  1988                           ;PF.c: 52:         for (j = 0; j < 41; j++) {
  1989  002466  0E00               	movlw	0
  1990  002468  6E33               	movwf	tempo@j^0,c
  1991  00246A                     l2737:
  1992                           
  1993                           ;PF.c: 53:             for (k = 0; k < 3; k++);
  1994  00246A  0E00               	movlw	0
  1995  00246C  6E34               	movwf	tempo@k^0,c
  1996  00246E                     l2743:
  1997  00246E  2A34               	incf	tempo@k^0,f,c
  1998  002470  0E02               	movlw	2
  1999  002472  6434               	cpfsgt	tempo@k^0,c
  2000  002474  EF3E  F012         	goto	u2571
  2001  002478  EF40  F012         	goto	u2570
  2002  00247C                     u2571:
  2003  00247C  EF37  F012         	goto	l2743
  2004  002480                     u2570:
  2005  002480                     
  2006                           ;PF.c: 54:         }
  2007  002480  2A33               	incf	tempo@j^0,f,c
  2008  002482  0E28               	movlw	40
  2009  002484  6433               	cpfsgt	tempo@j^0,c
  2010  002486  EF47  F012         	goto	u2581
  2011  00248A  EF49  F012         	goto	u2580
  2012  00248E                     u2581:
  2013  00248E  EF35  F012         	goto	l2737
  2014  002492                     u2580:
  2015  002492                     
  2016                           ;PF.c: 55:     }
  2017  002492  2A32               	incf	tempo@i^0,f,c
  2018  002494                     l2753:
  2019  002494  5031               	movf	tempo@x^0,w,c
  2020  002496  5C32               	subwf	tempo@i^0,w,c
  2021  002498  A0D8               	btfss	status,0,c
  2022  00249A  EF51  F012         	goto	u2591
  2023  00249E  EF53  F012         	goto	u2590
  2024  0024A2                     u2591:
  2025  0024A2  EF33  F012         	goto	l2731
  2026  0024A6                     u2590:
  2027  0024A6  0012               	return		;funcret
  2028  0024A8                     __end_of_tempo:
  2029                           	callstack 0
  2030                           
  2031 ;; *************** function _ssdUpdate *****************
  2032 ;; Defined at:
  2033 ;;		line 54 in file "ssd.c"
  2034 ;; Parameters:    Size  Location     Type
  2035 ;;		None
  2036 ;; Auto vars:     Size  Location     Type
  2037 ;;		None
  2038 ;; Return value:  Size  Location     Type
  2039 ;;                  1    wreg      void 
  2040 ;; Registers used:
  2041 ;;		wreg, status,2, status,0, tblptrl, tblptrh, tblptru, cstack
  2042 ;; Tracked objects:
  2043 ;;		On entry : 0/0
  2044 ;;		On exit  : 0/0
  2045 ;;		Unchanged: 0/0
  2046 ;; Data sizes:     COMRAM   BANK0   BANK1   BANK2   BANK3   BANK4   BANK5
  2047 ;;      Params:         0       0       0       0       0       0       0
  2048 ;;      Locals:         0       0       0       0       0       0       0
  2049 ;;      Temps:          2       0       0       0       0       0       0
  2050 ;;      Totals:         2       0       0       0       0       0       0
  2051 ;;Total ram usage:        2 bytes
  2052 ;; Hardware stack levels used: 1
  2053 ;; Hardware stack levels required when called: 1
  2054 ;; This function calls:
  2055 ;;		_digitalWrite
  2056 ;; This function is called by:
  2057 ;;		_main
  2058 ;; This function uses a non-reentrant model
  2059 ;;
  2060                           
  2061                           	psect	text2
  2062  001A22                     __ptext2:
  2063                           	callstack 0
  2064  001A22                     _ssdUpdate:
  2065                           	callstack 29
  2066  001A22                     
  2067                           ;ssd.c: 58:     TRISD= 0x00;
  2068  001A22  0E00               	movlw	0
  2069  001A24  6E95               	movwf	149,c	;volatile
  2070  001A26                     
  2071                           ;ssd.c: 60:     digitalWrite(PIN_A2,0);
  2072  001A26  0E00               	movlw	0
  2073  001A28  6E32               	movwf	(digitalWrite@pin+1)^0,c
  2074  001A2A  0E02               	movlw	2
  2075  001A2C  6E31               	movwf	digitalWrite@pin^0,c
  2076  001A2E  0E00               	movlw	0
  2077  001A30  6E34               	movwf	(digitalWrite@value+1)^0,c
  2078  001A32  0E00               	movlw	0
  2079  001A34  6E33               	movwf	digitalWrite@value^0,c
  2080  001A36  EC7F  F00A         	call	_digitalWrite	;wreg free
  2081  001A3A                     
  2082                           ;ssd.c: 61:     digitalWrite(PIN_A3,0);
  2083  001A3A  0E00               	movlw	0
  2084  001A3C  6E32               	movwf	(digitalWrite@pin+1)^0,c
  2085  001A3E  0E03               	movlw	3
  2086  001A40  6E31               	movwf	digitalWrite@pin^0,c
  2087  001A42  0E00               	movlw	0
  2088  001A44  6E34               	movwf	(digitalWrite@value+1)^0,c
  2089  001A46  0E00               	movlw	0
  2090  001A48  6E33               	movwf	digitalWrite@value^0,c
  2091  001A4A  EC7F  F00A         	call	_digitalWrite	;wreg free
  2092  001A4E                     
  2093                           ;ssd.c: 62:     digitalWrite(PIN_A4,0);
  2094  001A4E  0E00               	movlw	0
  2095  001A50  6E32               	movwf	(digitalWrite@pin+1)^0,c
  2096  001A52  0E04               	movlw	4
  2097  001A54  6E31               	movwf	digitalWrite@pin^0,c
  2098  001A56  0E00               	movlw	0
  2099  001A58  6E34               	movwf	(digitalWrite@value+1)^0,c
  2100  001A5A  0E00               	movlw	0
  2101  001A5C  6E33               	movwf	digitalWrite@value^0,c
  2102  001A5E  EC7F  F00A         	call	_digitalWrite	;wreg free
  2103  001A62                     
  2104                           ;ssd.c: 63:     digitalWrite(PIN_A5,0);
  2105  001A62  0E00               	movlw	0
  2106  001A64  6E32               	movwf	(digitalWrite@pin+1)^0,c
  2107  001A66  0E05               	movlw	5
  2108  001A68  6E31               	movwf	digitalWrite@pin^0,c
  2109  001A6A  0E00               	movlw	0
  2110  001A6C  6E34               	movwf	(digitalWrite@value+1)^0,c
  2111  001A6E  0E00               	movlw	0
  2112  001A70  6E33               	movwf	digitalWrite@value^0,c
  2113  001A72  EC7F  F00A         	call	_digitalWrite	;wreg free
  2114                           
  2115                           ;ssd.c: 66:     PORTD = 0x00;
  2116  001A76  0E00               	movlw	0
  2117  001A78  6E83               	movwf	131,c	;volatile
  2118                           
  2119                           ;ssd.c: 69:     switch (display)
  2120  001A7A  EF9C  F00D         	goto	l2675
  2121  001A7E                     l2647:
  2122                           
  2123                           ;ssd.c: 72:             PORTD = valor[v0];
  2124  001A7E  0E01               	movlw	low _valor@ssd$F167
  2125  001A80  2453               	addwf	_v0^0,w,c
  2126  001A82  6EF6               	movwf	tblptrl,c
  2127  001A84  6AF7               	clrf	tblptrh,c
  2128  001A86  0E06               	movlw	high _valor@ssd$F167
  2129  001A88  22F7               	addwfc	tblptrh,f,c
  2130  001A8A                     	if	0	;There are less than 3 active tblptr bytes
  2131  001A8A                     	endif
  2132  001A8A  0008               	tblrd		*
  2133  001A8C  CFF5 FF83          	movff	tablat,3971	;volatile
  2134  001A90                     
  2135                           ;ssd.c: 73:             digitalWrite(PIN_A2,1);
  2136  001A90  0E00               	movlw	0
  2137  001A92  6E32               	movwf	(digitalWrite@pin+1)^0,c
  2138  001A94  0E02               	movlw	2
  2139  001A96  6E31               	movwf	digitalWrite@pin^0,c
  2140  001A98  0E00               	movlw	0
  2141  001A9A  6E34               	movwf	(digitalWrite@value+1)^0,c
  2142  001A9C  0E01               	movlw	1
  2143  001A9E  6E33               	movwf	digitalWrite@value^0,c
  2144  001AA0  EC7F  F00A         	call	_digitalWrite	;wreg free
  2145  001AA4                     
  2146                           ;ssd.c: 74:             display = 1;
  2147  001AA4  0E01               	movlw	1
  2148  001AA6  6E54               	movwf	_display^0,c
  2149                           
  2150                           ;ssd.c: 75:             break;
  2151  001AA8  EFB9  F00D         	goto	l186
  2152  001AAC                     l2653:
  2153                           
  2154                           ;ssd.c: 78:             PORTD = valor[v1]+0x80;
  2155  001AAC  0E01               	movlw	low _valor@ssd$F167
  2156  001AAE  2452               	addwf	_v1^0,w,c
  2157  001AB0  6EF6               	movwf	tblptrl,c
  2158  001AB2  6AF7               	clrf	tblptrh,c
  2159  001AB4  0E06               	movlw	high _valor@ssd$F167
  2160  001AB6  22F7               	addwfc	tblptrh,f,c
  2161  001AB8                     	if	0	;There are less than 3 active tblptr bytes
  2162  001AB8                     	endif
  2163  001AB8  0008               	tblrd		*
  2164  001ABA  50F5               	movf	tablat,w,c
  2165  001ABC  0F80               	addlw	128
  2166  001ABE  6E83               	movwf	131,c	;volatile
  2167  001AC0                     
  2168                           ;ssd.c: 79:             digitalWrite(PIN_A3,1);
  2169  001AC0  0E00               	movlw	0
  2170  001AC2  6E32               	movwf	(digitalWrite@pin+1)^0,c
  2171  001AC4  0E03               	movlw	3
  2172  001AC6  6E31               	movwf	digitalWrite@pin^0,c
  2173  001AC8  0E00               	movlw	0
  2174  001ACA  6E34               	movwf	(digitalWrite@value+1)^0,c
  2175  001ACC  0E01               	movlw	1
  2176  001ACE  6E33               	movwf	digitalWrite@value^0,c
  2177  001AD0  EC7F  F00A         	call	_digitalWrite	;wreg free
  2178  001AD4                     
  2179                           ;ssd.c: 80:             display = 2;
  2180  001AD4  0E02               	movlw	2
  2181  001AD6  6E54               	movwf	_display^0,c
  2182                           
  2183                           ;ssd.c: 81:             break;
  2184  001AD8  EFB9  F00D         	goto	l186
  2185  001ADC                     l2659:
  2186                           
  2187                           ;ssd.c: 84:             PORTD = valor[v2];
  2188  001ADC  0E01               	movlw	low _valor@ssd$F167
  2189  001ADE  2451               	addwf	_v2^0,w,c
  2190  001AE0  6EF6               	movwf	tblptrl,c
  2191  001AE2  6AF7               	clrf	tblptrh,c
  2192  001AE4  0E06               	movlw	high _valor@ssd$F167
  2193  001AE6  22F7               	addwfc	tblptrh,f,c
  2194  001AE8                     	if	0	;There are less than 3 active tblptr bytes
  2195  001AE8                     	endif
  2196  001AE8  0008               	tblrd		*
  2197  001AEA  CFF5 FF83          	movff	tablat,3971	;volatile
  2198  001AEE                     
  2199                           ;ssd.c: 85:             digitalWrite(PIN_A4,1);
  2200  001AEE  0E00               	movlw	0
  2201  001AF0  6E32               	movwf	(digitalWrite@pin+1)^0,c
  2202  001AF2  0E04               	movlw	4
  2203  001AF4  6E31               	movwf	digitalWrite@pin^0,c
  2204  001AF6  0E00               	movlw	0
  2205  001AF8  6E34               	movwf	(digitalWrite@value+1)^0,c
  2206  001AFA  0E01               	movlw	1
  2207  001AFC  6E33               	movwf	digitalWrite@value^0,c
  2208  001AFE  EC7F  F00A         	call	_digitalWrite	;wreg free
  2209  001B02                     
  2210                           ;ssd.c: 86:             display = 3;
  2211  001B02  0E03               	movlw	3
  2212  001B04  6E54               	movwf	_display^0,c
  2213                           
  2214                           ;ssd.c: 87:             break;
  2215  001B06  EFB9  F00D         	goto	l186
  2216  001B0A                     l2665:
  2217                           
  2218                           ;ssd.c: 90:             PORTD = valor[v3];
  2219  001B0A  0E01               	movlw	low _valor@ssd$F167
  2220  001B0C  2450               	addwf	_v3^0,w,c
  2221  001B0E  6EF6               	movwf	tblptrl,c
  2222  001B10  6AF7               	clrf	tblptrh,c
  2223  001B12  0E06               	movlw	high _valor@ssd$F167
  2224  001B14  22F7               	addwfc	tblptrh,f,c
  2225  001B16                     	if	0	;There are less than 3 active tblptr bytes
  2226  001B16                     	endif
  2227  001B16  0008               	tblrd		*
  2228  001B18  CFF5 FF83          	movff	tablat,3971	;volatile
  2229  001B1C                     
  2230                           ;ssd.c: 91:             digitalWrite(PIN_A5,1);
  2231  001B1C  0E00               	movlw	0
  2232  001B1E  6E32               	movwf	(digitalWrite@pin+1)^0,c
  2233  001B20  0E05               	movlw	5
  2234  001B22  6E31               	movwf	digitalWrite@pin^0,c
  2235  001B24  0E00               	movlw	0
  2236  001B26  6E34               	movwf	(digitalWrite@value+1)^0,c
  2237  001B28  0E01               	movlw	1
  2238  001B2A  6E33               	movwf	digitalWrite@value^0,c
  2239  001B2C  EC7F  F00A         	call	_digitalWrite	;wreg free
  2240  001B30                     l2669:
  2241                           
  2242                           ;ssd.c: 92:             display = 0;
  2243  001B30  0E00               	movlw	0
  2244  001B32  6E54               	movwf	_display^0,c
  2245                           
  2246                           ;ssd.c: 93:             break;
  2247  001B34  EFB9  F00D         	goto	l186
  2248  001B38                     l2675:
  2249  001B38  5054               	movf	_display^0,w,c
  2250  001B3A  6E37               	movwf	??_ssdUpdate^0,c
  2251  001B3C  6A38               	clrf	(??_ssdUpdate+1)^0,c
  2252                           
  2253                           ; Switch on 2 bytes has been partitioned into a top level switch of size 1, and 1 sub-sw
      +                          itches
  2254                           ; Switch size 1, requested type "simple"
  2255                           ; Number of cases is 1, Range of values is 0 to 0
  2256                           ; switch strategies available:
  2257                           ; Name         Instructions Cycles
  2258                           ; simple_byte            4     3 (average)
  2259                           ;	Chosen strategy is simple_byte
  2260  001B3E  5038               	movf	(??_ssdUpdate+1)^0,w,c
  2261  001B40  0A00               	xorlw	0	; case 0
  2262  001B42  B4D8               	btfsc	status,2,c
  2263  001B44  EFA6  F00D         	goto	l3447
  2264  001B48  EF98  F00D         	goto	l2669
  2265  001B4C                     l3447:
  2266                           
  2267                           ; Switch size 1, requested type "simple"
  2268                           ; Number of cases is 4, Range of values is 0 to 3
  2269                           ; switch strategies available:
  2270                           ; Name         Instructions Cycles
  2271                           ; simple_byte           13     7 (average)
  2272                           ;	Chosen strategy is simple_byte
  2273  001B4C  5037               	movf	??_ssdUpdate^0,w,c
  2274  001B4E  0A00               	xorlw	0	; case 0
  2275  001B50  B4D8               	btfsc	status,2,c
  2276  001B52  EF3F  F00D         	goto	l2647
  2277  001B56  0A01               	xorlw	1	; case 1
  2278  001B58  B4D8               	btfsc	status,2,c
  2279  001B5A  EF56  F00D         	goto	l2653
  2280  001B5E  0A03               	xorlw	3	; case 2
  2281  001B60  B4D8               	btfsc	status,2,c
  2282  001B62  EF6E  F00D         	goto	l2659
  2283  001B66  0A01               	xorlw	1	; case 3
  2284  001B68  B4D8               	btfsc	status,2,c
  2285  001B6A  EF85  F00D         	goto	l2665
  2286  001B6E  EF98  F00D         	goto	l2669
  2287  001B72                     l186:
  2288  001B72  0012               	return		;funcret
  2289  001B74                     __end_of_ssdUpdate:
  2290                           	callstack 0
  2291                           
  2292 ;; *************** function _ssdInit *****************
  2293 ;; Defined at:
  2294 ;;		line 101 in file "ssd.c"
  2295 ;; Parameters:    Size  Location     Type
  2296 ;;		None
  2297 ;; Auto vars:     Size  Location     Type
  2298 ;;		None
  2299 ;; Return value:  Size  Location     Type
  2300 ;;                  1    wreg      void 
  2301 ;; Registers used:
  2302 ;;		wreg, status,2, status,0, cstack
  2303 ;; Tracked objects:
  2304 ;;		On entry : 0/0
  2305 ;;		On exit  : 0/0
  2306 ;;		Unchanged: 0/0
  2307 ;; Data sizes:     COMRAM   BANK0   BANK1   BANK2   BANK3   BANK4   BANK5
  2308 ;;      Params:         0       0       0       0       0       0       0
  2309 ;;      Locals:         0       0       0       0       0       0       0
  2310 ;;      Temps:          0       0       0       0       0       0       0
  2311 ;;      Totals:         0       0       0       0       0       0       0
  2312 ;;Total ram usage:        0 bytes
  2313 ;; Hardware stack levels used: 1
  2314 ;; Hardware stack levels required when called: 1
  2315 ;; This function calls:
  2316 ;;		_pinMode
  2317 ;; This function is called by:
  2318 ;;		_main
  2319 ;; This function uses a non-reentrant model
  2320 ;;
  2321                           
  2322                           	psect	text3
  2323  002362                     __ptext3:
  2324                           	callstack 0
  2325  002362                     _ssdInit:
  2326                           	callstack 29
  2327  002362                     
  2328                           ;ssd.c: 103:     pinMode(PIN_A2, 0);
  2329  002362  0E00               	movlw	0
  2330  002364  6E32               	movwf	(pinMode@pin+1)^0,c
  2331  002366  0E02               	movlw	2
  2332  002368  6E31               	movwf	pinMode@pin^0,c
  2333  00236A  0E00               	movlw	0
  2334  00236C  6E34               	movwf	(pinMode@type+1)^0,c
  2335  00236E  0E00               	movlw	0
  2336  002370  6E33               	movwf	pinMode@type^0,c
  2337  002372  EC58  F009         	call	_pinMode	;wreg free
  2338                           
  2339                           ;ssd.c: 104:     pinMode(PIN_A3, 0);
  2340  002376  0E00               	movlw	0
  2341  002378  6E32               	movwf	(pinMode@pin+1)^0,c
  2342  00237A  0E03               	movlw	3
  2343  00237C  6E31               	movwf	pinMode@pin^0,c
  2344  00237E  0E00               	movlw	0
  2345  002380  6E34               	movwf	(pinMode@type+1)^0,c
  2346  002382  0E00               	movlw	0
  2347  002384  6E33               	movwf	pinMode@type^0,c
  2348  002386  EC58  F009         	call	_pinMode	;wreg free
  2349                           
  2350                           ;ssd.c: 105:     pinMode(PIN_A4, 0);
  2351  00238A  0E00               	movlw	0
  2352  00238C  6E32               	movwf	(pinMode@pin+1)^0,c
  2353  00238E  0E04               	movlw	4
  2354  002390  6E31               	movwf	pinMode@pin^0,c
  2355  002392  0E00               	movlw	0
  2356  002394  6E34               	movwf	(pinMode@type+1)^0,c
  2357  002396  0E00               	movlw	0
  2358  002398  6E33               	movwf	pinMode@type^0,c
  2359  00239A  EC58  F009         	call	_pinMode	;wreg free
  2360                           
  2361                           ;ssd.c: 106:     pinMode(PIN_A5, 0);
  2362  00239E  0E00               	movlw	0
  2363  0023A0  6E32               	movwf	(pinMode@pin+1)^0,c
  2364  0023A2  0E05               	movlw	5
  2365  0023A4  6E31               	movwf	pinMode@pin^0,c
  2366  0023A6  0E00               	movlw	0
  2367  0023A8  6E34               	movwf	(pinMode@type+1)^0,c
  2368  0023AA  0E00               	movlw	0
  2369  0023AC  6E33               	movwf	pinMode@type^0,c
  2370  0023AE  EC58  F009         	call	_pinMode	;wreg free
  2371  0023B2                     
  2372                           ;ssd.c: 109:     TRISD = 0x00;
  2373  0023B2  0E00               	movlw	0
  2374  0023B4  6E95               	movwf	149,c	;volatile
  2375  0023B6  0012               	return		;funcret
  2376  0023B8                     __end_of_ssdInit:
  2377                           	callstack 0
  2378                           
  2379 ;; *************** function _ssdDigit *****************
  2380 ;; Defined at:
  2381 ;;		line 38 in file "ssd.c"
  2382 ;; Parameters:    Size  Location     Type
  2383 ;;  val             1    wreg     unsigned char 
  2384 ;;  pos             1    0[COMRAM] unsigned char 
  2385 ;; Auto vars:     Size  Location     Type
  2386 ;;  val             1    1[COMRAM] unsigned char 
  2387 ;; Return value:  Size  Location     Type
  2388 ;;                  1    wreg      void 
  2389 ;; Registers used:
  2390 ;;		wreg, status,2, status,0
  2391 ;; Tracked objects:
  2392 ;;		On entry : 0/0
  2393 ;;		On exit  : 0/0
  2394 ;;		Unchanged: 0/0
  2395 ;; Data sizes:     COMRAM   BANK0   BANK1   BANK2   BANK3   BANK4   BANK5
  2396 ;;      Params:         1       0       0       0       0       0       0
  2397 ;;      Locals:         1       0       0       0       0       0       0
  2398 ;;      Temps:          0       0       0       0       0       0       0
  2399 ;;      Totals:         2       0       0       0       0       0       0
  2400 ;;Total ram usage:        2 bytes
  2401 ;; Hardware stack levels used: 1
  2402 ;; This function calls:
  2403 ;;		Nothing
  2404 ;; This function is called by:
  2405 ;;		_main
  2406 ;; This function uses a non-reentrant model
  2407 ;;
  2408                           
  2409                           	psect	text4
  2410  0022B4                     __ptext4:
  2411                           	callstack 0
  2412  0022B4                     _ssdDigit:
  2413                           	callstack 30
  2414                           
  2415                           ;incstack = 0
  2416                           ;ssdDigit@val stored from wreg
  2417  0022B4  6E32               	movwf	ssdDigit@val^0,c
  2418  0022B6                     
  2419                           ;ssd.c: 39:     if (pos == 0) {
  2420  0022B6  5031               	movf	ssdDigit@pos^0,w,c
  2421  0022B8  A4D8               	btfss	status,2,c
  2422  0022BA  EF61  F011         	goto	u2481
  2423  0022BE  EF63  F011         	goto	u2480
  2424  0022C2                     u2481:
  2425  0022C2  EF65  F011         	goto	l2625
  2426  0022C6                     u2480:
  2427  0022C6                     
  2428                           ;ssd.c: 40:         v0 = val;
  2429  0022C6  C032  F053         	movff	ssdDigit@val,_v0
  2430  0022CA                     l2625:
  2431                           
  2432                           ;ssd.c: 42:     if (pos == 1) {
  2433  0022CA  0431               	decf	ssdDigit@pos^0,w,c
  2434  0022CC  A4D8               	btfss	status,2,c
  2435  0022CE  EF6B  F011         	goto	u2491
  2436  0022D2  EF6D  F011         	goto	u2490
  2437  0022D6                     u2491:
  2438  0022D6  EF6F  F011         	goto	l2629
  2439  0022DA                     u2490:
  2440  0022DA                     
  2441                           ;ssd.c: 43:         v1 = val;
  2442  0022DA  C032  F052         	movff	ssdDigit@val,_v1
  2443  0022DE                     l2629:
  2444                           
  2445                           ;ssd.c: 45:     if (pos == 2) {
  2446  0022DE  0E02               	movlw	2
  2447  0022E0  1831               	xorwf	ssdDigit@pos^0,w,c
  2448  0022E2  A4D8               	btfss	status,2,c
  2449  0022E4  EF76  F011         	goto	u2501
  2450  0022E8  EF78  F011         	goto	u2500
  2451  0022EC                     u2501:
  2452  0022EC  EF7A  F011         	goto	l2633
  2453  0022F0                     u2500:
  2454  0022F0                     
  2455                           ;ssd.c: 46:         v2 = val;
  2456  0022F0  C032  F051         	movff	ssdDigit@val,_v2
  2457  0022F4                     l2633:
  2458                           
  2459                           ;ssd.c: 48:     if (pos == 3) {
  2460  0022F4  0E03               	movlw	3
  2461  0022F6  1831               	xorwf	ssdDigit@pos^0,w,c
  2462  0022F8  A4D8               	btfss	status,2,c
  2463  0022FA  EF81  F011         	goto	u2511
  2464  0022FE  EF83  F011         	goto	u2510
  2465  002302                     u2511:
  2466  002302  EF85  F011         	goto	l176
  2467  002306                     u2510:
  2468  002306                     
  2469                           ;ssd.c: 49:         v3 = val;
  2470  002306  C032  F050         	movff	ssdDigit@val,_v3
  2471  00230A                     l176:
  2472  00230A  0012               	return		;funcret
  2473  00230C                     __end_of_ssdDigit:
  2474                           	callstack 0
  2475                           
  2476 ;; *************** function _pwmSet *****************
  2477 ;; Defined at:
  2478 ;;		line 24 in file "pwm.c"
  2479 ;; Parameters:    Size  Location     Type
  2480 ;;  porcento        1    wreg     unsigned char 
  2481 ;; Auto vars:     Size  Location     Type
  2482 ;;  porcento        1   22[COMRAM] unsigned char 
  2483 ;;  val             2   23[COMRAM] unsigned int 
  2484 ;; Return value:  Size  Location     Type
  2485 ;;                  1    wreg      void 
  2486 ;; Registers used:
  2487 ;;		wreg, status,2, status,0, prodl, prodh, cstack
  2488 ;; Tracked objects:
  2489 ;;		On entry : 0/0
  2490 ;;		On exit  : 0/0
  2491 ;;		Unchanged: 0/0
  2492 ;; Data sizes:     COMRAM   BANK0   BANK1   BANK2   BANK3   BANK4   BANK5
  2493 ;;      Params:         0       0       0       0       0       0       0
  2494 ;;      Locals:         3       0       0       0       0       0       0
  2495 ;;      Temps:          2       0       0       0       0       0       0
  2496 ;;      Totals:         5       0       0       0       0       0       0
  2497 ;;Total ram usage:        5 bytes
  2498 ;; Hardware stack levels used: 1
  2499 ;; Hardware stack levels required when called: 1
  2500 ;; This function calls:
  2501 ;;		___lwdiv
  2502 ;;		___wmul
  2503 ;; This function is called by:
  2504 ;;		_main
  2505 ;; This function uses a non-reentrant model
  2506 ;;
  2507                           
  2508                           	psect	text5
  2509  00217E                     __ptext5:
  2510                           	callstack 0
  2511  00217E                     _pwmSet:
  2512                           	callstack 29
  2513                           
  2514                           ;incstack = 0
  2515                           ;pwmSet@porcento stored from wreg
  2516  00217E  6E47               	movwf	pwmSet@porcento^0,c
  2517  002180                     
  2518                           ;pwm.c: 24: void pwmSet(unsigned char porcento);pwm.c: 25: {;pwm.c: 31:  unsigned int va
      +                          l = ((unsigned int)porcento) *(PR2+1);
  2519  002180  0E01               	movlw	1
  2520  002182  24CB               	addwf	203,w,c	;volatile
  2521  002184  6E38               	movwf	___wmul@multiplier^0,c
  2522  002186  6A39               	clrf	(___wmul@multiplier+1)^0,c
  2523  002188  0E00               	movlw	0
  2524  00218A  2239               	addwfc	(___wmul@multiplier+1)^0,f,c
  2525  00218C  C047  F03A         	movff	pwmSet@porcento,___wmul@multiplicand
  2526  002190  6A3B               	clrf	(___wmul@multiplicand+1)^0,c
  2527  002192  EC88  F012         	call	___wmul	;wreg free
  2528  002196  C038  F048         	movff	?___wmul,pwmSet@val
  2529  00219A  C039  F049         	movff	?___wmul+1,pwmSet@val+1
  2530  00219E                     
  2531                           ;pwm.c: 33:     val = val / 25;
  2532  00219E  C048  F03E         	movff	pwmSet@val,___lwdiv@dividend
  2533  0021A2  C049  F03F         	movff	pwmSet@val+1,___lwdiv@dividend+1
  2534  0021A6  0E00               	movlw	0
  2535  0021A8  6E41               	movwf	(___lwdiv@divisor+1)^0,c
  2536  0021AA  0E19               	movlw	25
  2537  0021AC  6E40               	movwf	___lwdiv@divisor^0,c
  2538  0021AE  EC4E  F010         	call	___lwdiv	;wreg free
  2539  0021B2  C03E  F048         	movff	?___lwdiv,pwmSet@val
  2540  0021B6  C03F  F049         	movff	?___lwdiv+1,pwmSet@val+1
  2541  0021BA                     
  2542                           ;pwm.c: 35:  val &= 0x03ff;
  2543  0021BA  0EFF               	movlw	255
  2544  0021BC  1648               	andwf	pwmSet@val^0,f,c
  2545  0021BE  0E03               	movlw	3
  2546  0021C0  1649               	andwf	(pwmSet@val+1)^0,f,c
  2547  0021C2                     
  2548                           ;pwm.c: 37:  CCPR1L = val >> 2;
  2549  0021C2  C048  F045         	movff	pwmSet@val,??_pwmSet
  2550  0021C6  C049  F046         	movff	pwmSet@val+1,??_pwmSet+1
  2551  0021CA  90D8               	bcf	status,0,c
  2552  0021CC  3246               	rrcf	(??_pwmSet+1)^0,f,c
  2553  0021CE  3245               	rrcf	??_pwmSet^0,f,c
  2554  0021D0  90D8               	bcf	status,0,c
  2555  0021D2  3246               	rrcf	(??_pwmSet+1)^0,f,c
  2556  0021D4  3245               	rrcf	??_pwmSet^0,f,c
  2557  0021D6  5045               	movf	??_pwmSet^0,w,c
  2558  0021D8  6EBE               	movwf	190,c	;volatile
  2559  0021DA                     
  2560                           ;pwm.c: 39:  CCP1CON |= (val & 0x0003) << 4;
  2561  0021DA  C048  F045         	movff	pwmSet@val,??_pwmSet	;volatile
  2562  0021DE  0E03               	movlw	3
  2563  0021E0  1645               	andwf	??_pwmSet^0,f,c
  2564  0021E2  3845               	swapf	??_pwmSet^0,w,c
  2565  0021E4  0BF0               	andlw	240
  2566  0021E6  12BD               	iorwf	189,f,c	;volatile
  2567  0021E8  0012               	return		;funcret
  2568  0021EA                     __end_of_pwmSet:
  2569                           	callstack 0
  2570                           
  2571 ;; *************** function ___wmul *****************
  2572 ;; Defined at:
  2573 ;;		line 15 in file "C:\Program Files\Microchip\xc8\v2.32\pic\sources\c99\common\Umul16.c"
  2574 ;; Parameters:    Size  Location     Type
  2575 ;;  multiplier      2    7[COMRAM] unsigned int 
  2576 ;;  multiplicand    2    9[COMRAM] unsigned int 
  2577 ;; Auto vars:     Size  Location     Type
  2578 ;;  product         2   11[COMRAM] unsigned int 
  2579 ;; Return value:  Size  Location     Type
  2580 ;;                  2    7[COMRAM] unsigned int 
  2581 ;; Registers used:
  2582 ;;		wreg, status,2, status,0, prodl, prodh
  2583 ;; Tracked objects:
  2584 ;;		On entry : 0/0
  2585 ;;		On exit  : 0/0
  2586 ;;		Unchanged: 0/0
  2587 ;; Data sizes:     COMRAM   BANK0   BANK1   BANK2   BANK3   BANK4   BANK5
  2588 ;;      Params:         4       0       0       0       0       0       0
  2589 ;;      Locals:         2       0       0       0       0       0       0
  2590 ;;      Temps:          0       0       0       0       0       0       0
  2591 ;;      Totals:         6       0       0       0       0       0       0
  2592 ;;Total ram usage:        6 bytes
  2593 ;; Hardware stack levels used: 1
  2594 ;; This function calls:
  2595 ;;		Nothing
  2596 ;; This function is called by:
  2597 ;;		_main
  2598 ;;		_pwmSet
  2599 ;; This function uses a non-reentrant model
  2600 ;;
  2601                           
  2602                           	psect	text6
  2603  002510                     __ptext6:
  2604                           	callstack 0
  2605  002510                     ___wmul:
  2606                           	callstack 29
  2607  002510  5038               	movf	___wmul@multiplier^0,w,c
  2608  002512  023A               	mulwf	___wmul@multiplicand^0,c
  2609  002514  CFF3 F03C          	movff	prodl,___wmul@product
  2610  002518  CFF4 F03D          	movff	prodh,___wmul@product+1
  2611  00251C  5038               	movf	___wmul@multiplier^0,w,c
  2612  00251E  023B               	mulwf	(___wmul@multiplicand+1)^0,c
  2613  002520  50F3               	movf	243,w,c
  2614  002522  263D               	addwf	(___wmul@product+1)^0,f,c
  2615  002524  5039               	movf	(___wmul@multiplier+1)^0,w,c
  2616  002526  023A               	mulwf	___wmul@multiplicand^0,c
  2617  002528  50F3               	movf	243,w,c
  2618  00252A  263D               	addwf	(___wmul@product+1)^0,f,c
  2619  00252C  C03C  F038         	movff	___wmul@product,?___wmul
  2620  002530  C03D  F039         	movff	___wmul@product+1,?___wmul+1
  2621  002534  0012               	return		;funcret
  2622  002536                     __end_of___wmul:
  2623                           	callstack 0
  2624                           
  2625 ;; *************** function _pwmInit *****************
  2626 ;; Defined at:
  2627 ;;		line 51 in file "pwm.c"
  2628 ;; Parameters:    Size  Location     Type
  2629 ;;		None
  2630 ;; Auto vars:     Size  Location     Type
  2631 ;;		None
  2632 ;; Return value:  Size  Location     Type
  2633 ;;                  1    wreg      void 
  2634 ;; Registers used:
  2635 ;;		wreg, status,2, status,0, cstack
  2636 ;; Tracked objects:
  2637 ;;		On entry : 0/0
  2638 ;;		On exit  : 0/0
  2639 ;;		Unchanged: 0/0
  2640 ;; Data sizes:     COMRAM   BANK0   BANK1   BANK2   BANK3   BANK4   BANK5
  2641 ;;      Params:         0       0       0       0       0       0       0
  2642 ;;      Locals:         0       0       0       0       0       0       0
  2643 ;;      Temps:          0       0       0       0       0       0       0
  2644 ;;      Totals:         0       0       0       0       0       0       0
  2645 ;;Total ram usage:        0 bytes
  2646 ;; Hardware stack levels used: 1
  2647 ;; Hardware stack levels required when called: 2
  2648 ;; This function calls:
  2649 ;;		_pwmFrequency
  2650 ;; This function is called by:
  2651 ;;		_main
  2652 ;; This function uses a non-reentrant model
  2653 ;;
  2654                           
  2655                           	psect	text7
  2656  002578                     __ptext7:
  2657                           	callstack 0
  2658  002578                     _pwmInit:
  2659                           	callstack 28
  2660  002578                     
  2661                           ;pwm.c: 53:  ((TRISC) &= ~(1<<(2)));
  2662  002578  9494               	bcf	148,2,c	;volatile
  2663  00257A                     
  2664                           ;pwm.c: 55:  T2CON |= 0b00000011;
  2665  00257A  0E03               	movlw	3
  2666  00257C  12CA               	iorwf	202,f,c	;volatile
  2667  00257E                     
  2668                           ;pwm.c: 56:  ((T2CON) |= (1<<(2)));
  2669  00257E  84CA               	bsf	202,2,c	;volatile
  2670  002580                     
  2671                           ;pwm.c: 58:  CCP1CON = 0b00001100;
  2672  002580  0E0C               	movlw	12
  2673  002582  6EBD               	movwf	189,c	;volatile
  2674  002584                     
  2675                           ;pwm.c: 60:     pwmFrequency(100);
  2676  002584  0E00               	movlw	0
  2677  002586  6E40               	movwf	(pwmFrequency@freq+1)^0,c
  2678  002588  0E64               	movlw	100
  2679  00258A  6E3F               	movwf	pwmFrequency@freq^0,c
  2680  00258C  EC9B  F012         	call	_pwmFrequency	;wreg free
  2681  002590  0012               	return		;funcret
  2682  002592                     __end_of_pwmInit:
  2683                           	callstack 0
  2684                           
  2685 ;; *************** function _pwmFrequency *****************
  2686 ;; Defined at:
  2687 ;;		line 44 in file "pwm.c"
  2688 ;; Parameters:    Size  Location     Type
  2689 ;;  freq            2   14[COMRAM] unsigned int 
  2690 ;; Auto vars:     Size  Location     Type
  2691 ;;		None
  2692 ;; Return value:  Size  Location     Type
  2693 ;;                  1    wreg      void 
  2694 ;; Registers used:
  2695 ;;		wreg, status,2, status,0, cstack
  2696 ;; Tracked objects:
  2697 ;;		On entry : 0/0
  2698 ;;		On exit  : 0/0
  2699 ;;		Unchanged: 0/0
  2700 ;; Data sizes:     COMRAM   BANK0   BANK1   BANK2   BANK3   BANK4   BANK5
  2701 ;;      Params:         2       0       0       0       0       0       0
  2702 ;;      Locals:         0       0       0       0       0       0       0
  2703 ;;      Temps:          0       0       0       0       0       0       0
  2704 ;;      Totals:         2       0       0       0       0       0       0
  2705 ;;Total ram usage:        2 bytes
  2706 ;; Hardware stack levels used: 1
  2707 ;; Hardware stack levels required when called: 1
  2708 ;; This function calls:
  2709 ;;		___aldiv
  2710 ;; This function is called by:
  2711 ;;		_pwmInit
  2712 ;; This function uses a non-reentrant model
  2713 ;;
  2714                           
  2715                           	psect	text8
  2716  002536                     __ptext8:
  2717                           	callstack 0
  2718  002536                     _pwmFrequency:
  2719                           	callstack 28
  2720  002536                     
  2721                           ;pwm.c: 44: void pwmFrequency(unsigned int freq);pwm.c: 45: {;pwm.c: 48:  PR2 = (125000l
      +                          /(freq)) - 1;
  2722  002536  0E48               	movlw	72
  2723  002538  6E31               	movwf	___aldiv@dividend^0,c
  2724  00253A  0EE8               	movlw	232
  2725  00253C  6E32               	movwf	(___aldiv@dividend+1)^0,c
  2726  00253E  0E01               	movlw	1
  2727  002540  6E33               	movwf	(___aldiv@dividend+2)^0,c
  2728  002542  0E00               	movlw	0
  2729  002544  6E34               	movwf	(___aldiv@dividend+3)^0,c
  2730  002546  C03F  F035         	movff	pwmFrequency@freq,___aldiv@divisor
  2731  00254A  C040  F036         	movff	pwmFrequency@freq+1,___aldiv@divisor+1
  2732  00254E  6A37               	clrf	(___aldiv@divisor+2)^0,c
  2733  002550  6A38               	clrf	(___aldiv@divisor+3)^0,c
  2734  002552  ECBA  F00D         	call	___aldiv	;wreg free
  2735  002556  0431               	decf	?___aldiv^0,w,c
  2736  002558  6ECB               	movwf	203,c	;volatile
  2737  00255A  0012               	return		;funcret
  2738  00255C                     __end_of_pwmFrequency:
  2739                           	callstack 0
  2740                           
  2741 ;; *************** function ___aldiv *****************
  2742 ;; Defined at:
  2743 ;;		line 7 in file "C:\Program Files\Microchip\xc8\v2.32\pic\sources\c99\common\aldiv.c"
  2744 ;; Parameters:    Size  Location     Type
  2745 ;;  dividend        4    0[COMRAM] long 
  2746 ;;  divisor         4    4[COMRAM] long 
  2747 ;; Auto vars:     Size  Location     Type
  2748 ;;  quotient        4   10[COMRAM] long 
  2749 ;;  sign            1    9[COMRAM] unsigned char 
  2750 ;;  counter         1    8[COMRAM] unsigned char 
  2751 ;; Return value:  Size  Location     Type
  2752 ;;                  4    0[COMRAM] long 
  2753 ;; Registers used:
  2754 ;;		wreg, status,2, status,0
  2755 ;; Tracked objects:
  2756 ;;		On entry : 0/0
  2757 ;;		On exit  : 0/0
  2758 ;;		Unchanged: 0/0
  2759 ;; Data sizes:     COMRAM   BANK0   BANK1   BANK2   BANK3   BANK4   BANK5
  2760 ;;      Params:         8       0       0       0       0       0       0
  2761 ;;      Locals:         6       0       0       0       0       0       0
  2762 ;;      Temps:          0       0       0       0       0       0       0
  2763 ;;      Totals:        14       0       0       0       0       0       0
  2764 ;;Total ram usage:       14 bytes
  2765 ;; Hardware stack levels used: 1
  2766 ;; This function calls:
  2767 ;;		Nothing
  2768 ;; This function is called by:
  2769 ;;		_pwmFrequency
  2770 ;; This function uses a non-reentrant model
  2771 ;;
  2772                           
  2773                           	psect	text9
  2774  001B74                     __ptext9:
  2775                           	callstack 0
  2776  001B74                     ___aldiv:
  2777                           	callstack 28
  2778  001B74  0E00               	movlw	0
  2779  001B76  6E3A               	movwf	___aldiv@sign^0,c
  2780  001B78  BE38               	btfsc	(___aldiv@divisor+3)^0,7,c
  2781  001B7A  EFC3  F00D         	goto	u2000
  2782  001B7E  EFC1  F00D         	goto	u2001
  2783  001B82                     u2001:
  2784  001B82  EFCD  F00D         	goto	l2371
  2785  001B86                     u2000:
  2786  001B86  1E38               	comf	(___aldiv@divisor+3)^0,f,c
  2787  001B88  1E37               	comf	(___aldiv@divisor+2)^0,f,c
  2788  001B8A  1E36               	comf	(___aldiv@divisor+1)^0,f,c
  2789  001B8C  6C35               	negf	___aldiv@divisor^0,c
  2790  001B8E  0E00               	movlw	0
  2791  001B90  2236               	addwfc	(___aldiv@divisor+1)^0,f,c
  2792  001B92  2237               	addwfc	(___aldiv@divisor+2)^0,f,c
  2793  001B94  2238               	addwfc	(___aldiv@divisor+3)^0,f,c
  2794  001B96  0E01               	movlw	1
  2795  001B98  6E3A               	movwf	___aldiv@sign^0,c
  2796  001B9A                     l2371:
  2797  001B9A  BE34               	btfsc	(___aldiv@dividend+3)^0,7,c
  2798  001B9C  EFD4  F00D         	goto	u2010
  2799  001BA0  EFD2  F00D         	goto	u2011
  2800  001BA4                     u2011:
  2801  001BA4  EFDE  F00D         	goto	l2377
  2802  001BA8                     u2010:
  2803  001BA8  1E34               	comf	(___aldiv@dividend+3)^0,f,c
  2804  001BAA  1E33               	comf	(___aldiv@dividend+2)^0,f,c
  2805  001BAC  1E32               	comf	(___aldiv@dividend+1)^0,f,c
  2806  001BAE  6C31               	negf	___aldiv@dividend^0,c
  2807  001BB0  0E00               	movlw	0
  2808  001BB2  2232               	addwfc	(___aldiv@dividend+1)^0,f,c
  2809  001BB4  2233               	addwfc	(___aldiv@dividend+2)^0,f,c
  2810  001BB6  2234               	addwfc	(___aldiv@dividend+3)^0,f,c
  2811  001BB8  0E01               	movlw	1
  2812  001BBA  1A3A               	xorwf	___aldiv@sign^0,f,c
  2813  001BBC                     l2377:
  2814  001BBC  0E00               	movlw	0
  2815  001BBE  6E3B               	movwf	___aldiv@quotient^0,c
  2816  001BC0  0E00               	movlw	0
  2817  001BC2  6E3C               	movwf	(___aldiv@quotient+1)^0,c
  2818  001BC4  0E00               	movlw	0
  2819  001BC6  6E3D               	movwf	(___aldiv@quotient+2)^0,c
  2820  001BC8  0E00               	movlw	0
  2821  001BCA  6E3E               	movwf	(___aldiv@quotient+3)^0,c
  2822  001BCC  5035               	movf	___aldiv@divisor^0,w,c
  2823  001BCE  1036               	iorwf	(___aldiv@divisor+1)^0,w,c
  2824  001BD0  1037               	iorwf	(___aldiv@divisor+2)^0,w,c
  2825  001BD2  1038               	iorwf	(___aldiv@divisor+3)^0,w,c
  2826  001BD4  B4D8               	btfsc	status,2,c
  2827  001BD6  EFEF  F00D         	goto	u2021
  2828  001BDA  EFF1  F00D         	goto	u2020
  2829  001BDE                     u2021:
  2830  001BDE  EF27  F00E         	goto	l2399
  2831  001BE2                     u2020:
  2832  001BE2  0E01               	movlw	1
  2833  001BE4  6E39               	movwf	___aldiv@counter^0,c
  2834  001BE6  EFFB  F00D         	goto	l2385
  2835  001BEA                     l2383:
  2836  001BEA  90D8               	bcf	status,0,c
  2837  001BEC  3635               	rlcf	___aldiv@divisor^0,f,c
  2838  001BEE  3636               	rlcf	(___aldiv@divisor+1)^0,f,c
  2839  001BF0  3637               	rlcf	(___aldiv@divisor+2)^0,f,c
  2840  001BF2  3638               	rlcf	(___aldiv@divisor+3)^0,f,c
  2841  001BF4  2A39               	incf	___aldiv@counter^0,f,c
  2842  001BF6                     l2385:
  2843  001BF6  AE38               	btfss	(___aldiv@divisor+3)^0,7,c
  2844  001BF8  EF00  F00E         	goto	u2031
  2845  001BFC  EF02  F00E         	goto	u2030
  2846  001C00                     u2031:
  2847  001C00  EFF5  F00D         	goto	l2383
  2848  001C04                     u2030:
  2849  001C04                     l2387:
  2850  001C04  90D8               	bcf	status,0,c
  2851  001C06  363B               	rlcf	___aldiv@quotient^0,f,c
  2852  001C08  363C               	rlcf	(___aldiv@quotient+1)^0,f,c
  2853  001C0A  363D               	rlcf	(___aldiv@quotient+2)^0,f,c
  2854  001C0C  363E               	rlcf	(___aldiv@quotient+3)^0,f,c
  2855  001C0E  5035               	movf	___aldiv@divisor^0,w,c
  2856  001C10  5C31               	subwf	___aldiv@dividend^0,w,c
  2857  001C12  5036               	movf	(___aldiv@divisor+1)^0,w,c
  2858  001C14  5832               	subwfb	(___aldiv@dividend+1)^0,w,c
  2859  001C16  5037               	movf	(___aldiv@divisor+2)^0,w,c
  2860  001C18  5833               	subwfb	(___aldiv@dividend+2)^0,w,c
  2861  001C1A  5038               	movf	(___aldiv@divisor+3)^0,w,c
  2862  001C1C  5834               	subwfb	(___aldiv@dividend+3)^0,w,c
  2863  001C1E  A0D8               	btfss	status,0,c
  2864  001C20  EF14  F00E         	goto	u2041
  2865  001C24  EF16  F00E         	goto	u2040
  2866  001C28                     u2041:
  2867  001C28  EF1F  F00E         	goto	l2395
  2868  001C2C                     u2040:
  2869  001C2C  5035               	movf	___aldiv@divisor^0,w,c
  2870  001C2E  5E31               	subwf	___aldiv@dividend^0,f,c
  2871  001C30  5036               	movf	(___aldiv@divisor+1)^0,w,c
  2872  001C32  5A32               	subwfb	(___aldiv@dividend+1)^0,f,c
  2873  001C34  5037               	movf	(___aldiv@divisor+2)^0,w,c
  2874  001C36  5A33               	subwfb	(___aldiv@dividend+2)^0,f,c
  2875  001C38  5038               	movf	(___aldiv@divisor+3)^0,w,c
  2876  001C3A  5A34               	subwfb	(___aldiv@dividend+3)^0,f,c
  2877  001C3C  803B               	bsf	___aldiv@quotient^0,0,c
  2878  001C3E                     l2395:
  2879  001C3E  90D8               	bcf	status,0,c
  2880  001C40  3238               	rrcf	(___aldiv@divisor+3)^0,f,c
  2881  001C42  3237               	rrcf	(___aldiv@divisor+2)^0,f,c
  2882  001C44  3236               	rrcf	(___aldiv@divisor+1)^0,f,c
  2883  001C46  3235               	rrcf	___aldiv@divisor^0,f,c
  2884  001C48  2E39               	decfsz	___aldiv@counter^0,f,c
  2885  001C4A  EF02  F00E         	goto	l2387
  2886  001C4E                     l2399:
  2887  001C4E  503A               	movf	___aldiv@sign^0,w,c
  2888  001C50  B4D8               	btfsc	status,2,c
  2889  001C52  EF2D  F00E         	goto	u2051
  2890  001C56  EF2F  F00E         	goto	u2050
  2891  001C5A                     u2051:
  2892  001C5A  EF37  F00E         	goto	l2403
  2893  001C5E                     u2050:
  2894  001C5E  1E3E               	comf	(___aldiv@quotient+3)^0,f,c
  2895  001C60  1E3D               	comf	(___aldiv@quotient+2)^0,f,c
  2896  001C62  1E3C               	comf	(___aldiv@quotient+1)^0,f,c
  2897  001C64  6C3B               	negf	___aldiv@quotient^0,c
  2898  001C66  0E00               	movlw	0
  2899  001C68  223C               	addwfc	(___aldiv@quotient+1)^0,f,c
  2900  001C6A  223D               	addwfc	(___aldiv@quotient+2)^0,f,c
  2901  001C6C  223E               	addwfc	(___aldiv@quotient+3)^0,f,c
  2902  001C6E                     l2403:
  2903  001C6E  C03B  F031         	movff	___aldiv@quotient,?___aldiv
  2904  001C72  C03C  F032         	movff	___aldiv@quotient+1,?___aldiv+1
  2905  001C76  C03D  F033         	movff	___aldiv@quotient+2,?___aldiv+2
  2906  001C7A  C03E  F034         	movff	___aldiv@quotient+3,?___aldiv+3
  2907  001C7E  0012               	return		;funcret
  2908  001C80                     __end_of___aldiv:
  2909                           	callstack 0
  2910                           
  2911 ;; *************** function _printf *****************
  2912 ;; Defined at:
  2913 ;;		line 27 in file "PF.c"
  2914 ;; Parameters:    Size  Location     Type
  2915 ;;  v               2   11[COMRAM] PTR unsigned char 
  2916 ;;		 -> main@opcoes(55), 
  2917 ;; Auto vars:     Size  Location     Type
  2918 ;;  i               1   18[COMRAM] unsigned char 
  2919 ;;  linha           1   17[COMRAM] unsigned char 
  2920 ;;  coluna          1   16[COMRAM] unsigned char 
  2921 ;; Return value:  Size  Location     Type
  2922 ;;                  1    wreg      void 
  2923 ;; Registers used:
  2924 ;;		wreg, fsr2l, fsr2h, status,2, status,0, cstack
  2925 ;; Tracked objects:
  2926 ;;		On entry : 0/0
  2927 ;;		On exit  : 0/0
  2928 ;;		Unchanged: 0/0
  2929 ;; Data sizes:     COMRAM   BANK0   BANK1   BANK2   BANK3   BANK4   BANK5
  2930 ;;      Params:         2       0       0       0       0       0       0
  2931 ;;      Locals:         3       0       0       0       0       0       0
  2932 ;;      Temps:          3       0       0       0       0       0       0
  2933 ;;      Totals:         8       0       0       0       0       0       0
  2934 ;;Total ram usage:        8 bytes
  2935 ;; Hardware stack levels used: 1
  2936 ;; Hardware stack levels required when called: 4
  2937 ;; This function calls:
  2938 ;;		_lcdData
  2939 ;;		_lcdPosition
  2940 ;; This function is called by:
  2941 ;;		_main
  2942 ;; This function uses a non-reentrant model
  2943 ;;
  2944                           
  2945                           	psect	text10
  2946  001F1C                     __ptext10:
  2947                           	callstack 0
  2948  001F1C                     _printf:
  2949                           	callstack 26
  2950  001F1C                     
  2951                           ;PF.c: 28:     char i, linha = 0, coluna = 0;
  2952  001F1C  0E00               	movlw	0
  2953  001F1E  6E42               	movwf	printf@linha^0,c
  2954  001F20  0E00               	movlw	0
  2955  001F22  6E41               	movwf	printf@coluna^0,c
  2956                           
  2957                           ;PF.c: 29:     for (i = 0; i < 55; i++) {
  2958  001F24  0E00               	movlw	0
  2959  001F26  6E43               	movwf	printf@i^0,c
  2960  001F28                     l2713:
  2961                           
  2962                           ;PF.c: 30:         if (v[i] == '\\' && v[i + 1] == 'n') {
  2963  001F28  5043               	movf	printf@i^0,w,c
  2964  001F2A  243C               	addwf	printf@v^0,w,c
  2965  001F2C  6ED9               	movwf	fsr2l,c
  2966  001F2E  0E00               	movlw	0
  2967  001F30  203D               	addwfc	(printf@v+1)^0,w,c
  2968  001F32  6EDA               	movwf	fsr2h,c
  2969  001F34  0E5C               	movlw	92
  2970  001F36  18DE               	xorwf	postinc2,w,c
  2971  001F38  A4D8               	btfss	status,2,c
  2972  001F3A  EFA1  F00F         	goto	u2541
  2973  001F3E  EFA3  F00F         	goto	u2540
  2974  001F42                     u2541:
  2975  001F42  EFC0  F00F         	goto	l2723
  2976  001F46                     u2540:
  2977  001F46  5043               	movf	printf@i^0,w,c
  2978  001F48  243C               	addwf	printf@v^0,w,c
  2979  001F4A  6E3E               	movwf	??_printf^0,c
  2980  001F4C  0E00               	movlw	0
  2981  001F4E  203D               	addwfc	(printf@v+1)^0,w,c
  2982  001F50  6E3F               	movwf	(??_printf+1)^0,c
  2983  001F52  0E01               	movlw	1
  2984  001F54  243E               	addwf	??_printf^0,w,c
  2985  001F56  6ED9               	movwf	fsr2l,c
  2986  001F58  0E00               	movlw	0
  2987  001F5A  203F               	addwfc	(??_printf+1)^0,w,c
  2988  001F5C  6EDA               	movwf	fsr2h,c
  2989  001F5E  0E6E               	movlw	110
  2990  001F60  18DE               	xorwf	postinc2,w,c
  2991  001F62  A4D8               	btfss	status,2,c
  2992  001F64  EFB6  F00F         	goto	u2551
  2993  001F68  EFB8  F00F         	goto	u2550
  2994  001F6C                     u2551:
  2995  001F6C  EFC0  F00F         	goto	l2723
  2996  001F70                     u2550:
  2997  001F70                     
  2998                           ;PF.c: 31:             linha++;
  2999  001F70  2A42               	incf	printf@linha^0,f,c
  3000  001F72                     
  3001                           ;PF.c: 32:             lcdPosition(linha, coluna);
  3002  001F72  C041  F039         	movff	printf@coluna,lcdPosition@coluna
  3003  001F76  5042               	movf	printf@linha^0,w,c
  3004  001F78  ECF5  F010         	call	_lcdPosition
  3005  001F7C                     
  3006                           ;PF.c: 33:             i += 2;
  3007  001F7C  0E02               	movlw	2
  3008  001F7E  2643               	addwf	printf@i^0,f,c
  3009  001F80                     l2723:
  3010                           
  3011                           ;PF.c: 35:         lcdData(v[i]);
  3012  001F80  5043               	movf	printf@i^0,w,c
  3013  001F82  243C               	addwf	printf@v^0,w,c
  3014  001F84  6ED9               	movwf	fsr2l,c
  3015  001F86  0E00               	movlw	0
  3016  001F88  203D               	addwfc	(printf@v+1)^0,w,c
  3017  001F8A  6EDA               	movwf	fsr2h,c
  3018  001F8C  50DF               	movf	indf2,w,c
  3019  001F8E  ECDC  F011         	call	_lcdData
  3020  001F92                     
  3021                           ;PF.c: 36:     }
  3022  001F92  2A43               	incf	printf@i^0,f,c
  3023  001F94  0E36               	movlw	54
  3024  001F96  6443               	cpfsgt	printf@i^0,c
  3025  001F98  EFD0  F00F         	goto	u2561
  3026  001F9C  EFD2  F00F         	goto	u2560
  3027  001FA0                     u2561:
  3028  001FA0  EF94  F00F         	goto	l2713
  3029  001FA4                     u2560:
  3030  001FA4  0012               	return		;funcret
  3031  001FA6                     __end_of_printf:
  3032                           	callstack 0
  3033                           
  3034 ;; *************** function _lcd_str *****************
  3035 ;; Defined at:
  3036 ;;		line 118 in file "lcd.c"
  3037 ;; Parameters:    Size  Location     Type
  3038 ;;  str             2    8[COMRAM] PTR const unsigned char 
  3039 ;;		 -> STR_12(14), STR_11(13), STR_10(16), STR_9(14), 
  3040 ;;		 -> STR_8(14), STR_7(12), STR_6(8), STR_5(17), 
  3041 ;;		 -> STR_4(12), STR_3(9), STR_2(13), STR_1(13), 
  3042 ;; Auto vars:     Size  Location     Type
  3043 ;;  i               1   12[COMRAM] unsigned char 
  3044 ;; Return value:  Size  Location     Type
  3045 ;;                  1    wreg      void 
  3046 ;; Registers used:
  3047 ;;		wreg, status,2, status,0, tblptrl, tblptrh, tblptru, cstack
  3048 ;; Tracked objects:
  3049 ;;		On entry : 0/0
  3050 ;;		On exit  : 0/0
  3051 ;;		Unchanged: 0/0
  3052 ;; Data sizes:     COMRAM   BANK0   BANK1   BANK2   BANK3   BANK4   BANK5
  3053 ;;      Params:         2       0       0       0       0       0       0
  3054 ;;      Locals:         1       0       0       0       0       0       0
  3055 ;;      Temps:          2       0       0       0       0       0       0
  3056 ;;      Totals:         5       0       0       0       0       0       0
  3057 ;;Total ram usage:        5 bytes
  3058 ;; Hardware stack levels used: 1
  3059 ;; Hardware stack levels required when called: 2
  3060 ;; This function calls:
  3061 ;;		_lcdData
  3062 ;; This function is called by:
  3063 ;;		_main
  3064 ;; This function uses a non-reentrant model
  3065 ;;
  3066                           
  3067                           	psect	text11
  3068  00240C                     __ptext11:
  3069                           	callstack 0
  3070  00240C                     _lcd_str:
  3071                           	callstack 28
  3072  00240C                     
  3073                           ;lcd.c: 119:     unsigned char i = 0;
  3074  00240C  0E00               	movlw	0
  3075  00240E  6E3D               	movwf	lcd_str@i^0,c
  3076                           
  3077                           ;lcd.c: 121:     while (str[i] != 0) {
  3078  002410  EF19  F012         	goto	l2619
  3079  002414                     l2615:
  3080                           
  3081                           ;lcd.c: 122:         lcdData(str[i]);
  3082  002414  503D               	movf	lcd_str@i^0,w,c
  3083  002416  2439               	addwf	lcd_str@str^0,w,c
  3084  002418  6E3B               	movwf	??_lcd_str^0,c
  3085  00241A  0E00               	movlw	0
  3086  00241C  203A               	addwfc	(lcd_str@str+1)^0,w,c
  3087  00241E  6E3C               	movwf	(??_lcd_str+1)^0,c
  3088  002420  C03B  FFF6         	movff	??_lcd_str,tblptrl
  3089  002424  C03C  FFF7         	movff	??_lcd_str+1,tblptrh
  3090  002428                     	if	0	;tblptru may be non-zero
  3091  002428                     	endif
  3092  002428                     	if	0	;tblptru may be non-zero
  3093  002428                     	endif
  3094  002428  0008               	tblrd		*
  3095  00242A  50F5               	movf	tablat,w,c
  3096  00242C  ECDC  F011         	call	_lcdData
  3097  002430                     
  3098                           ;lcd.c: 123:         i++;
  3099  002430  2A3D               	incf	lcd_str@i^0,f,c
  3100  002432                     l2619:
  3101                           
  3102                           ;lcd.c: 121:     while (str[i] != 0) {
  3103  002432  503D               	movf	lcd_str@i^0,w,c
  3104  002434  2439               	addwf	lcd_str@str^0,w,c
  3105  002436  6E3B               	movwf	??_lcd_str^0,c
  3106  002438  0E00               	movlw	0
  3107  00243A  203A               	addwfc	(lcd_str@str+1)^0,w,c
  3108  00243C  6E3C               	movwf	(??_lcd_str+1)^0,c
  3109  00243E  C03B  FFF6         	movff	??_lcd_str,tblptrl
  3110  002442  C03C  FFF7         	movff	??_lcd_str+1,tblptrh
  3111  002446                     	if	0	;tblptru may be non-zero
  3112  002446                     	endif
  3113  002446                     	if	0	;tblptru may be non-zero
  3114  002446                     	endif
  3115  002446  0008               	tblrd		*
  3116  002448  50F5               	movf	tablat,w,c
  3117  00244A  0900               	iorlw	0
  3118  00244C  A4D8               	btfss	status,2,c
  3119  00244E  EF2B  F012         	goto	u2471
  3120  002452  EF2D  F012         	goto	u2470
  3121  002456                     u2471:
  3122  002456  EF0A  F012         	goto	l2615
  3123  00245A                     u2470:
  3124  00245A  0012               	return		;funcret
  3125  00245C                     __end_of_lcd_str:
  3126                           	callstack 0
  3127                           
  3128 ;; *************** function _lcdInit *****************
  3129 ;; Defined at:
  3130 ;;		line 95 in file "lcd.c"
  3131 ;; Parameters:    Size  Location     Type
  3132 ;;		None
  3133 ;; Auto vars:     Size  Location     Type
  3134 ;;		None
  3135 ;; Return value:  Size  Location     Type
  3136 ;;                  1    wreg      void 
  3137 ;; Registers used:
  3138 ;;		wreg, status,2, status,0, cstack
  3139 ;; Tracked objects:
  3140 ;;		On entry : 0/0
  3141 ;;		On exit  : 0/0
  3142 ;;		Unchanged: 0/0
  3143 ;; Data sizes:     COMRAM   BANK0   BANK1   BANK2   BANK3   BANK4   BANK5
  3144 ;;      Params:         0       0       0       0       0       0       0
  3145 ;;      Locals:         0       0       0       0       0       0       0
  3146 ;;      Temps:          0       0       0       0       0       0       0
  3147 ;;      Totals:         0       0       0       0       0       0       0
  3148 ;;Total ram usage:        0 bytes
  3149 ;; Hardware stack levels used: 1
  3150 ;; Hardware stack levels required when called: 3
  3151 ;; This function calls:
  3152 ;;		_Delay2ms
  3153 ;;		_lcdCommand
  3154 ;;		_pinMode
  3155 ;; This function is called by:
  3156 ;;		_main
  3157 ;; This function uses a non-reentrant model
  3158 ;;
  3159                           
  3160                           	psect	text12
  3161  002024                     __ptext12:
  3162                           	callstack 0
  3163  002024                     _lcdInit:
  3164                           	callstack 27
  3165  002024                     
  3166                           ;lcd.c: 97:     pinMode(PIN_E2, 0);
  3167  002024  0E00               	movlw	0
  3168  002026  6E32               	movwf	(pinMode@pin+1)^0,c
  3169  002028  0E22               	movlw	34
  3170  00202A  6E31               	movwf	pinMode@pin^0,c
  3171  00202C  0E00               	movlw	0
  3172  00202E  6E34               	movwf	(pinMode@type+1)^0,c
  3173  002030  0E00               	movlw	0
  3174  002032  6E33               	movwf	pinMode@type^0,c
  3175  002034  EC58  F009         	call	_pinMode	;wreg free
  3176                           
  3177                           ;lcd.c: 98:     pinMode(PIN_E1, 0);
  3178  002038  0E00               	movlw	0
  3179  00203A  6E32               	movwf	(pinMode@pin+1)^0,c
  3180  00203C  0E21               	movlw	33
  3181  00203E  6E31               	movwf	pinMode@pin^0,c
  3182  002040  0E00               	movlw	0
  3183  002042  6E34               	movwf	(pinMode@type+1)^0,c
  3184  002044  0E00               	movlw	0
  3185  002046  6E33               	movwf	pinMode@type^0,c
  3186  002048  EC58  F009         	call	_pinMode	;wreg free
  3187  00204C                     
  3188                           ;lcd.c: 99:  TRISD = 0x00;
  3189  00204C  0E00               	movlw	0
  3190  00204E  6E95               	movwf	149,c	;volatile
  3191  002050                     
  3192                           ;lcd.c: 102:  Delay2ms(); Delay2ms(); Delay2ms(); Delay2ms(); Delay2ms();
  3193  002050  ECAE  F012         	call	_Delay2ms	;wreg free
  3194  002054  ECAE  F012         	call	_Delay2ms	;wreg free
  3195  002058  ECAE  F012         	call	_Delay2ms	;wreg free
  3196  00205C  ECAE  F012         	call	_Delay2ms	;wreg free
  3197  002060  ECAE  F012         	call	_Delay2ms	;wreg free
  3198  002064                     
  3199                           ;lcd.c: 104:     lcdCommand(0x38);
  3200  002064  0E38               	movlw	56
  3201  002066  ECD3  F00F         	call	_lcdCommand
  3202  00206A                     
  3203                           ;lcd.c: 105:     Delay2ms(); Delay2ms();
  3204  00206A  ECAE  F012         	call	_Delay2ms	;wreg free
  3205  00206E  ECAE  F012         	call	_Delay2ms	;wreg free
  3206  002072                     
  3207                           ;lcd.c: 106:     lcdCommand(0x38);
  3208  002072  0E38               	movlw	56
  3209  002074  ECD3  F00F         	call	_lcdCommand
  3210  002078                     
  3211                           ;lcd.c: 107:     Delay2ms();
  3212  002078  ECAE  F012         	call	_Delay2ms	;wreg free
  3213  00207C                     
  3214                           ;lcd.c: 108:     lcdCommand(0x38);
  3215  00207C  0E38               	movlw	56
  3216  00207E  ECD3  F00F         	call	_lcdCommand
  3217  002082                     
  3218                           ;lcd.c: 110:     lcdCommand(0x38);
  3219  002082  0E38               	movlw	56
  3220  002084  ECD3  F00F         	call	_lcdCommand
  3221  002088                     
  3222                           ;lcd.c: 111:     lcdCommand(0x06);
  3223  002088  0E06               	movlw	6
  3224  00208A  ECD3  F00F         	call	_lcdCommand
  3225  00208E                     
  3226                           ;lcd.c: 114:     lcdCommand(0x0C);
  3227  00208E  0E0C               	movlw	12
  3228  002090  ECD3  F00F         	call	_lcdCommand
  3229  002094                     
  3230                           ;lcd.c: 115:     lcdCommand(0x01);
  3231  002094  0E01               	movlw	1
  3232  002096  ECD3  F00F         	call	_lcdCommand
  3233  00209A  0012               	return		;funcret
  3234  00209C                     __end_of_lcdInit:
  3235                           	callstack 0
  3236                           
  3237 ;; *************** function _pinMode *****************
  3238 ;; Defined at:
  3239 ;;		line 54 in file "io.c"
  3240 ;; Parameters:    Size  Location     Type
  3241 ;;  pin             2    0[COMRAM] int 
  3242 ;;  type            2    2[COMRAM] int 
  3243 ;; Auto vars:     Size  Location     Type
  3244 ;;		None
  3245 ;; Return value:  Size  Location     Type
  3246 ;;                  1    wreg      void 
  3247 ;; Registers used:
  3248 ;;		wreg, status,2, status,0
  3249 ;; Tracked objects:
  3250 ;;		On entry : 0/0
  3251 ;;		On exit  : 0/0
  3252 ;;		Unchanged: 0/0
  3253 ;; Data sizes:     COMRAM   BANK0   BANK1   BANK2   BANK3   BANK4   BANK5
  3254 ;;      Params:         4       0       0       0       0       0       0
  3255 ;;      Locals:         0       0       0       0       0       0       0
  3256 ;;      Temps:          2       0       0       0       0       0       0
  3257 ;;      Totals:         6       0       0       0       0       0       0
  3258 ;;Total ram usage:        6 bytes
  3259 ;; Hardware stack levels used: 1
  3260 ;; This function calls:
  3261 ;;		Nothing
  3262 ;; This function is called by:
  3263 ;;		_lcdInit
  3264 ;;		_ssdInit
  3265 ;; This function uses a non-reentrant model
  3266 ;;
  3267                           
  3268                           	psect	text13
  3269  0012B0                     __ptext13:
  3270                           	callstack 0
  3271  0012B0                     _pinMode:
  3272                           	callstack 29
  3273  0012B0                     
  3274                           ;io.c: 56:     if(pin <8){
  3275  0012B0  BE32               	btfsc	(pinMode@pin+1)^0,7,c
  3276  0012B2  EF66  F009         	goto	u2060
  3277  0012B6  5032               	movf	(pinMode@pin+1)^0,w,c
  3278  0012B8  E107               	bnz	u2061
  3279  0012BA  0E08               	movlw	8
  3280  0012BC  5C31               	subwf	pinMode@pin^0,w,c
  3281  0012BE  B0D8               	btfsc	status,0,c
  3282  0012C0  EF64  F009         	goto	u2061
  3283  0012C4  EF66  F009         	goto	u2060
  3284  0012C8                     u2061:
  3285  0012C8  EF90  F009         	goto	l2415
  3286  0012CC                     u2060:
  3287  0012CC                     
  3288                           ;io.c: 57:         if (type){ ((TRISA) |= (1<<(pin)));}
  3289  0012CC  5033               	movf	pinMode@type^0,w,c
  3290  0012CE  1034               	iorwf	(pinMode@type+1)^0,w,c
  3291  0012D0  B4D8               	btfsc	status,2,c
  3292  0012D2  EF6D  F009         	goto	u2071
  3293  0012D6  EF6F  F009         	goto	u2070
  3294  0012DA                     u2071:
  3295  0012DA  EF7F  F009         	goto	l2413
  3296  0012DE                     u2070:
  3297  0012DE  C031  F035         	movff	pinMode@pin,??_pinMode
  3298  0012E2  0E01               	movlw	1
  3299  0012E4  6E36               	movwf	(??_pinMode+1)^0,c
  3300  0012E6  2A35               	incf	??_pinMode^0,f,c
  3301  0012E8  EF78  F009         	goto	u2084
  3302  0012EC                     u2085:
  3303  0012EC  90D8               	bcf	status,0,c
  3304  0012EE  3636               	rlcf	(??_pinMode+1)^0,f,c
  3305  0012F0                     u2084:
  3306  0012F0  2E35               	decfsz	??_pinMode^0,f,c
  3307  0012F2  EF76  F009         	goto	u2085
  3308  0012F6  5036               	movf	(??_pinMode+1)^0,w,c
  3309  0012F8  1292               	iorwf	146,f,c	;volatile
  3310  0012FA  EF7E  F00A         	goto	l76
  3311  0012FE                     l2413:
  3312  0012FE  C031  F035         	movff	pinMode@pin,??_pinMode
  3313  001302  0E01               	movlw	1
  3314  001304  6E36               	movwf	(??_pinMode+1)^0,c
  3315  001306  2A35               	incf	??_pinMode^0,f,c
  3316  001308  EF88  F009         	goto	u2094
  3317  00130C                     u2095:
  3318  00130C  90D8               	bcf	status,0,c
  3319  00130E  3636               	rlcf	(??_pinMode+1)^0,f,c
  3320  001310                     u2094:
  3321  001310  2E35               	decfsz	??_pinMode^0,f,c
  3322  001312  EF86  F009         	goto	u2095
  3323  001316  5036               	movf	(??_pinMode+1)^0,w,c
  3324  001318  0AFF               	xorlw	255
  3325  00131A  1692               	andwf	146,f,c	;volatile
  3326  00131C  EF7E  F00A         	goto	l76
  3327  001320                     l2415:
  3328  001320  BE32               	btfsc	(pinMode@pin+1)^0,7,c
  3329  001322  EF9E  F009         	goto	u2100
  3330  001326  5032               	movf	(pinMode@pin+1)^0,w,c
  3331  001328  E107               	bnz	u2101
  3332  00132A  0E10               	movlw	16
  3333  00132C  5C31               	subwf	pinMode@pin^0,w,c
  3334  00132E  B0D8               	btfsc	status,0,c
  3335  001330  EF9C  F009         	goto	u2101
  3336  001334  EF9E  F009         	goto	u2100
  3337  001338                     u2101:
  3338  001338  EFCC  F009         	goto	l2423
  3339  00133C                     u2100:
  3340  00133C                     
  3341                           ;io.c: 60:         if (type){ ((TRISB) |= (1<<(pin-8)));}
  3342  00133C  5033               	movf	pinMode@type^0,w,c
  3343  00133E  1034               	iorwf	(pinMode@type+1)^0,w,c
  3344  001340  B4D8               	btfsc	status,2,c
  3345  001342  EFA5  F009         	goto	u2111
  3346  001346  EFA7  F009         	goto	u2110
  3347  00134A                     u2111:
  3348  00134A  EFB9  F009         	goto	l2421
  3349  00134E                     u2110:
  3350  00134E  C031  F035         	movff	pinMode@pin,??_pinMode
  3351  001352  0EF8               	movlw	-8
  3352  001354  2635               	addwf	??_pinMode^0,f,c
  3353  001356  0E01               	movlw	1
  3354  001358  6E36               	movwf	(??_pinMode+1)^0,c
  3355  00135A  2A35               	incf	??_pinMode^0,f,c
  3356  00135C  EFB2  F009         	goto	u2124
  3357  001360                     u2125:
  3358  001360  90D8               	bcf	status,0,c
  3359  001362  3636               	rlcf	(??_pinMode+1)^0,f,c
  3360  001364                     u2124:
  3361  001364  2E35               	decfsz	??_pinMode^0,f,c
  3362  001366  EFB0  F009         	goto	u2125
  3363  00136A  5036               	movf	(??_pinMode+1)^0,w,c
  3364  00136C  1293               	iorwf	147,f,c	;volatile
  3365  00136E  EF7E  F00A         	goto	l76
  3366  001372                     l2421:
  3367  001372  C031  F035         	movff	pinMode@pin,??_pinMode
  3368  001376  0EF8               	movlw	-8
  3369  001378  2635               	addwf	??_pinMode^0,f,c
  3370  00137A  0E01               	movlw	1
  3371  00137C  6E36               	movwf	(??_pinMode+1)^0,c
  3372  00137E  2A35               	incf	??_pinMode^0,f,c
  3373  001380  EFC4  F009         	goto	u2134
  3374  001384                     u2135:
  3375  001384  90D8               	bcf	status,0,c
  3376  001386  3636               	rlcf	(??_pinMode+1)^0,f,c
  3377  001388                     u2134:
  3378  001388  2E35               	decfsz	??_pinMode^0,f,c
  3379  00138A  EFC2  F009         	goto	u2135
  3380  00138E  5036               	movf	(??_pinMode+1)^0,w,c
  3381  001390  0AFF               	xorlw	255
  3382  001392  1693               	andwf	147,f,c	;volatile
  3383  001394  EF7E  F00A         	goto	l76
  3384  001398                     l2423:
  3385  001398  BE32               	btfsc	(pinMode@pin+1)^0,7,c
  3386  00139A  EFDA  F009         	goto	u2140
  3387  00139E  5032               	movf	(pinMode@pin+1)^0,w,c
  3388  0013A0  E107               	bnz	u2141
  3389  0013A2  0E18               	movlw	24
  3390  0013A4  5C31               	subwf	pinMode@pin^0,w,c
  3391  0013A6  B0D8               	btfsc	status,0,c
  3392  0013A8  EFD8  F009         	goto	u2141
  3393  0013AC  EFDA  F009         	goto	u2140
  3394  0013B0                     u2141:
  3395  0013B0  EF08  F00A         	goto	l2431
  3396  0013B4                     u2140:
  3397  0013B4                     
  3398                           ;io.c: 63:         if (type){ ((TRISC) |= (1<<(pin-16)));}
  3399  0013B4  5033               	movf	pinMode@type^0,w,c
  3400  0013B6  1034               	iorwf	(pinMode@type+1)^0,w,c
  3401  0013B8  B4D8               	btfsc	status,2,c
  3402  0013BA  EFE1  F009         	goto	u2151
  3403  0013BE  EFE3  F009         	goto	u2150
  3404  0013C2                     u2151:
  3405  0013C2  EFF5  F009         	goto	l2429
  3406  0013C6                     u2150:
  3407  0013C6  C031  F035         	movff	pinMode@pin,??_pinMode
  3408  0013CA  0EF0               	movlw	-16
  3409  0013CC  2635               	addwf	??_pinMode^0,f,c
  3410  0013CE  0E01               	movlw	1
  3411  0013D0  6E36               	movwf	(??_pinMode+1)^0,c
  3412  0013D2  2A35               	incf	??_pinMode^0,f,c
  3413  0013D4  EFEE  F009         	goto	u2164
  3414  0013D8                     u2165:
  3415  0013D8  90D8               	bcf	status,0,c
  3416  0013DA  3636               	rlcf	(??_pinMode+1)^0,f,c
  3417  0013DC                     u2164:
  3418  0013DC  2E35               	decfsz	??_pinMode^0,f,c
  3419  0013DE  EFEC  F009         	goto	u2165
  3420  0013E2  5036               	movf	(??_pinMode+1)^0,w,c
  3421  0013E4  1294               	iorwf	148,f,c	;volatile
  3422  0013E6  EF7E  F00A         	goto	l76
  3423  0013EA                     l2429:
  3424  0013EA  C031  F035         	movff	pinMode@pin,??_pinMode
  3425  0013EE  0EF0               	movlw	-16
  3426  0013F0  2635               	addwf	??_pinMode^0,f,c
  3427  0013F2  0E01               	movlw	1
  3428  0013F4  6E36               	movwf	(??_pinMode+1)^0,c
  3429  0013F6  2A35               	incf	??_pinMode^0,f,c
  3430  0013F8  EF00  F00A         	goto	u2174
  3431  0013FC                     u2175:
  3432  0013FC  90D8               	bcf	status,0,c
  3433  0013FE  3636               	rlcf	(??_pinMode+1)^0,f,c
  3434  001400                     u2174:
  3435  001400  2E35               	decfsz	??_pinMode^0,f,c
  3436  001402  EFFE  F009         	goto	u2175
  3437  001406  5036               	movf	(??_pinMode+1)^0,w,c
  3438  001408  0AFF               	xorlw	255
  3439  00140A  1694               	andwf	148,f,c	;volatile
  3440  00140C  EF7E  F00A         	goto	l76
  3441  001410                     l2431:
  3442  001410  BE32               	btfsc	(pinMode@pin+1)^0,7,c
  3443  001412  EF16  F00A         	goto	u2180
  3444  001416  5032               	movf	(pinMode@pin+1)^0,w,c
  3445  001418  E107               	bnz	u2181
  3446  00141A  0E20               	movlw	32
  3447  00141C  5C31               	subwf	pinMode@pin^0,w,c
  3448  00141E  B0D8               	btfsc	status,0,c
  3449  001420  EF14  F00A         	goto	u2181
  3450  001424  EF16  F00A         	goto	u2180
  3451  001428                     u2181:
  3452  001428  EF44  F00A         	goto	l2439
  3453  00142C                     u2180:
  3454  00142C                     
  3455                           ;io.c: 66:         if (type){ ((TRISD) |= (1<<(pin-24)));}
  3456  00142C  5033               	movf	pinMode@type^0,w,c
  3457  00142E  1034               	iorwf	(pinMode@type+1)^0,w,c
  3458  001430  B4D8               	btfsc	status,2,c
  3459  001432  EF1D  F00A         	goto	u2191
  3460  001436  EF1F  F00A         	goto	u2190
  3461  00143A                     u2191:
  3462  00143A  EF31  F00A         	goto	l2437
  3463  00143E                     u2190:
  3464  00143E  C031  F035         	movff	pinMode@pin,??_pinMode
  3465  001442  0EE8               	movlw	-24
  3466  001444  2635               	addwf	??_pinMode^0,f,c
  3467  001446  0E01               	movlw	1
  3468  001448  6E36               	movwf	(??_pinMode+1)^0,c
  3469  00144A  2A35               	incf	??_pinMode^0,f,c
  3470  00144C  EF2A  F00A         	goto	u2204
  3471  001450                     u2205:
  3472  001450  90D8               	bcf	status,0,c
  3473  001452  3636               	rlcf	(??_pinMode+1)^0,f,c
  3474  001454                     u2204:
  3475  001454  2E35               	decfsz	??_pinMode^0,f,c
  3476  001456  EF28  F00A         	goto	u2205
  3477  00145A  5036               	movf	(??_pinMode+1)^0,w,c
  3478  00145C  1295               	iorwf	149,f,c	;volatile
  3479  00145E  EF7E  F00A         	goto	l76
  3480  001462                     l2437:
  3481  001462  C031  F035         	movff	pinMode@pin,??_pinMode
  3482  001466  0EE8               	movlw	-24
  3483  001468  2635               	addwf	??_pinMode^0,f,c
  3484  00146A  0E01               	movlw	1
  3485  00146C  6E36               	movwf	(??_pinMode+1)^0,c
  3486  00146E  2A35               	incf	??_pinMode^0,f,c
  3487  001470  EF3C  F00A         	goto	u2214
  3488  001474                     u2215:
  3489  001474  90D8               	bcf	status,0,c
  3490  001476  3636               	rlcf	(??_pinMode+1)^0,f,c
  3491  001478                     u2214:
  3492  001478  2E35               	decfsz	??_pinMode^0,f,c
  3493  00147A  EF3A  F00A         	goto	u2215
  3494  00147E  5036               	movf	(??_pinMode+1)^0,w,c
  3495  001480  0AFF               	xorlw	255
  3496  001482  1695               	andwf	149,f,c	;volatile
  3497  001484  EF7E  F00A         	goto	l76
  3498  001488                     l2439:
  3499  001488  BE32               	btfsc	(pinMode@pin+1)^0,7,c
  3500  00148A  EF52  F00A         	goto	u2220
  3501  00148E  5032               	movf	(pinMode@pin+1)^0,w,c
  3502  001490  E107               	bnz	u2221
  3503  001492  0E28               	movlw	40
  3504  001494  5C31               	subwf	pinMode@pin^0,w,c
  3505  001496  B0D8               	btfsc	status,0,c
  3506  001498  EF50  F00A         	goto	u2221
  3507  00149C  EF52  F00A         	goto	u2220
  3508  0014A0                     u2221:
  3509  0014A0  EF7E  F00A         	goto	l76
  3510  0014A4                     u2220:
  3511  0014A4                     
  3512                           ;io.c: 69:         if (type){ ((TRISE) |= (1<<(pin-32)));}
  3513  0014A4  5033               	movf	pinMode@type^0,w,c
  3514  0014A6  1034               	iorwf	(pinMode@type+1)^0,w,c
  3515  0014A8  B4D8               	btfsc	status,2,c
  3516  0014AA  EF59  F00A         	goto	u2231
  3517  0014AE  EF5B  F00A         	goto	u2230
  3518  0014B2                     u2231:
  3519  0014B2  EF6D  F00A         	goto	l2445
  3520  0014B6                     u2230:
  3521  0014B6  C031  F035         	movff	pinMode@pin,??_pinMode
  3522  0014BA  0EE0               	movlw	-32
  3523  0014BC  2635               	addwf	??_pinMode^0,f,c
  3524  0014BE  0E01               	movlw	1
  3525  0014C0  6E36               	movwf	(??_pinMode+1)^0,c
  3526  0014C2  2A35               	incf	??_pinMode^0,f,c
  3527  0014C4  EF66  F00A         	goto	u2244
  3528  0014C8                     u2245:
  3529  0014C8  90D8               	bcf	status,0,c
  3530  0014CA  3636               	rlcf	(??_pinMode+1)^0,f,c
  3531  0014CC                     u2244:
  3532  0014CC  2E35               	decfsz	??_pinMode^0,f,c
  3533  0014CE  EF64  F00A         	goto	u2245
  3534  0014D2  5036               	movf	(??_pinMode+1)^0,w,c
  3535  0014D4  1296               	iorwf	150,f,c	;volatile
  3536  0014D6  EF7E  F00A         	goto	l76
  3537  0014DA                     l2445:
  3538  0014DA  C031  F035         	movff	pinMode@pin,??_pinMode
  3539  0014DE  0EE0               	movlw	-32
  3540  0014E0  2635               	addwf	??_pinMode^0,f,c
  3541  0014E2  0E01               	movlw	1
  3542  0014E4  6E36               	movwf	(??_pinMode+1)^0,c
  3543  0014E6  2A35               	incf	??_pinMode^0,f,c
  3544  0014E8  EF78  F00A         	goto	u2254
  3545  0014EC                     u2255:
  3546  0014EC  90D8               	bcf	status,0,c
  3547  0014EE  3636               	rlcf	(??_pinMode+1)^0,f,c
  3548  0014F0                     u2254:
  3549  0014F0  2E35               	decfsz	??_pinMode^0,f,c
  3550  0014F2  EF76  F00A         	goto	u2255
  3551  0014F6  5036               	movf	(??_pinMode+1)^0,w,c
  3552  0014F8  0AFF               	xorlw	255
  3553  0014FA  1696               	andwf	150,f,c	;volatile
  3554  0014FC                     l76:
  3555  0014FC  0012               	return		;funcret
  3556  0014FE                     __end_of_pinMode:
  3557                           	callstack 0
  3558                           
  3559 ;; *************** function _kpRead *****************
  3560 ;; Defined at:
  3561 ;;		line 35 in file "keypad.c"
  3562 ;; Parameters:    Size  Location     Type
  3563 ;;		None
  3564 ;; Auto vars:     Size  Location     Type
  3565 ;;		None
  3566 ;; Return value:  Size  Location     Type
  3567 ;;                  2    0[COMRAM] unsigned int 
  3568 ;; Registers used:
  3569 ;;		None
  3570 ;; Tracked objects:
  3571 ;;		On entry : 0/0
  3572 ;;		On exit  : 0/0
  3573 ;;		Unchanged: 0/0
  3574 ;; Data sizes:     COMRAM   BANK0   BANK1   BANK2   BANK3   BANK4   BANK5
  3575 ;;      Params:         2       0       0       0       0       0       0
  3576 ;;      Locals:         0       0       0       0       0       0       0
  3577 ;;      Temps:          0       0       0       0       0       0       0
  3578 ;;      Totals:         2       0       0       0       0       0       0
  3579 ;;Total ram usage:        2 bytes
  3580 ;; Hardware stack levels used: 1
  3581 ;; This function calls:
  3582 ;;		Nothing
  3583 ;; This function is called by:
  3584 ;;		_main
  3585 ;; This function uses a non-reentrant model
  3586 ;;
  3587                           
  3588                           	psect	text14
  3589  0025AA                     __ptext14:
  3590                           	callstack 0
  3591  0025AA                     _kpRead:
  3592                           	callstack 30
  3593  0025AA                     
  3594                           ;keypad.c: 36:     return valor;
  3595  0025AA  C04E  F031         	movff	_valor,?_kpRead
  3596  0025AE  C04F  F032         	movff	_valor+1,?_kpRead+1
  3597  0025B2  0012               	return		;funcret
  3598  0025B4                     __end_of_kpRead:
  3599                           	callstack 0
  3600                           
  3601 ;; *************** function _kpInit *****************
  3602 ;; Defined at:
  3603 ;;		line 87 in file "keypad.c"
  3604 ;; Parameters:    Size  Location     Type
  3605 ;;		None
  3606 ;; Auto vars:     Size  Location     Type
  3607 ;;		None
  3608 ;; Return value:  Size  Location     Type
  3609 ;;                  1    wreg      void 
  3610 ;; Registers used:
  3611 ;;		wreg, status,2, status,0
  3612 ;; Tracked objects:
  3613 ;;		On entry : 0/0
  3614 ;;		On exit  : 0/0
  3615 ;;		Unchanged: 0/0
  3616 ;; Data sizes:     COMRAM   BANK0   BANK1   BANK2   BANK3   BANK4   BANK5
  3617 ;;      Params:         0       0       0       0       0       0       0
  3618 ;;      Locals:         0       0       0       0       0       0       0
  3619 ;;      Temps:          0       0       0       0       0       0       0
  3620 ;;      Totals:         0       0       0       0       0       0       0
  3621 ;;Total ram usage:        0 bytes
  3622 ;; Hardware stack levels used: 1
  3623 ;; This function calls:
  3624 ;;		Nothing
  3625 ;; This function is called by:
  3626 ;;		_main
  3627 ;; This function uses a non-reentrant model
  3628 ;;
  3629                           
  3630                           	psect	text15
  3631  0025B4                     __ptext15:
  3632                           	callstack 0
  3633  0025B4                     _kpInit:
  3634                           	callstack 30
  3635  0025B4                     
  3636                           ;keypad.c: 89:     TRISB &= 0x07;
  3637  0025B4  0E07               	movlw	7
  3638  0025B6  1693               	andwf	147,f,c	;volatile
  3639                           
  3640                           ;keypad.c: 91:     TRISD |= 0x0f;
  3641  0025B8  0E0F               	movlw	15
  3642  0025BA  1295               	iorwf	149,f,c	;volatile
  3643  0025BC  0012               	return		;funcret
  3644  0025BE                     __end_of_kpInit:
  3645                           	callstack 0
  3646                           
  3647 ;; *************** function _kpDebounce *****************
  3648 ;; Defined at:
  3649 ;;		line 39 in file "keypad.c"
  3650 ;; Parameters:    Size  Location     Type
  3651 ;;		None
  3652 ;; Auto vars:     Size  Location     Type
  3653 ;;  k               2    6[COMRAM] int 
  3654 ;;  i               1    9[COMRAM] unsigned char 
  3655 ;;  j               1    8[COMRAM] unsigned char 
  3656 ;;  old_D           1    5[COMRAM] unsigned char 
  3657 ;; Return value:  Size  Location     Type
  3658 ;;                  1    wreg      void 
  3659 ;; Registers used:
  3660 ;;		wreg, status,2, status,0, prodl, prodh
  3661 ;; Tracked objects:
  3662 ;;		On entry : 0/0
  3663 ;;		On exit  : 0/0
  3664 ;;		Unchanged: 0/0
  3665 ;; Data sizes:     COMRAM   BANK0   BANK1   BANK2   BANK3   BANK4   BANK5
  3666 ;;      Params:         0       0       0       0       0       0       0
  3667 ;;      Locals:         5       0       0       0       0       0       0
  3668 ;;      Temps:          5       0       0       0       0       0       0
  3669 ;;      Totals:        10       0       0       0       0       0       0
  3670 ;;Total ram usage:       10 bytes
  3671 ;; Hardware stack levels used: 1
  3672 ;; This function calls:
  3673 ;;		Nothing
  3674 ;; This function is called by:
  3675 ;;		_main
  3676 ;; This function uses a non-reentrant model
  3677 ;;
  3678                           
  3679                           	psect	text16
  3680  00174C                     __ptext16:
  3681                           	callstack 0
  3682  00174C                     _kpDebounce:
  3683                           	callstack 30
  3684  00174C                     
  3685                           ;keypad.c: 40:     unsigned char i, j;;keypad.c: 41:     static unsigned char tempo;;key
      +                          pad.c: 42:     static unsigned int valorNovo = 0x0000;;keypad.c: 43:     static unsigned
      +                           int valorAntigo = 0x0000;;keypad.c: 46:     unsigned char old_D;;keypad.c: 47:     old_
      +                          D = PORTD;
  3686  00174C  CF83 F036          	movff	3971,kpDebounce@old_D	;volatile
  3687  001750                     
  3688                           ;keypad.c: 51:     TRISD |= 0x0f;
  3689  001750  0E0F               	movlw	15
  3690  001752  1295               	iorwf	149,f,c	;volatile
  3691  001754                     
  3692                           ;keypad.c: 53:     for (i = 0; i < 3; i++) {
  3693  001754  0E00               	movlw	0
  3694  001756  6E3A               	movwf	kpDebounce@i^0,c
  3695  001758                     l2533:
  3696                           
  3697                           ;keypad.c: 55:         TRISB &= 0xF8;
  3698  001758  0EF8               	movlw	248
  3699  00175A  1693               	andwf	147,f,c	;volatile
  3700                           
  3701                           ;keypad.c: 57:         ((TRISB) |= (1<<(i)));
  3702  00175C  C03A  F031         	movff	kpDebounce@i,??_kpDebounce
  3703  001760  0E01               	movlw	1
  3704  001762  6E32               	movwf	(??_kpDebounce+1)^0,c
  3705  001764  2A31               	incf	??_kpDebounce^0,f,c
  3706  001766  EFB7  F00B         	goto	u2364
  3707  00176A                     u2365:
  3708  00176A  90D8               	bcf	status,0,c
  3709  00176C  3632               	rlcf	(??_kpDebounce+1)^0,f,c
  3710  00176E                     u2364:
  3711  00176E  2E31               	decfsz	??_kpDebounce^0,f,c
  3712  001770  EFB5  F00B         	goto	u2365
  3713  001774  5032               	movf	(??_kpDebounce+1)^0,w,c
  3714  001776  1293               	iorwf	147,f,c	;volatile
  3715                           
  3716                           ;keypad.c: 59:         PORTB |= 0x07;
  3717  001778  0E07               	movlw	7
  3718  00177A  1281               	iorwf	129,f,c	;volatile
  3719                           
  3720                           ;keypad.c: 60:         ((PORTB) &= ~(1<<(i)));
  3721  00177C  C03A  F031         	movff	kpDebounce@i,??_kpDebounce
  3722  001780  0E01               	movlw	1
  3723  001782  6E32               	movwf	(??_kpDebounce+1)^0,c
  3724  001784  2A31               	incf	??_kpDebounce^0,f,c
  3725  001786  EFC7  F00B         	goto	u2374
  3726  00178A                     u2375:
  3727  00178A  90D8               	bcf	status,0,c
  3728  00178C  3632               	rlcf	(??_kpDebounce+1)^0,f,c
  3729  00178E                     u2374:
  3730  00178E  2E31               	decfsz	??_kpDebounce^0,f,c
  3731  001790  EFC5  F00B         	goto	u2375
  3732  001794  5032               	movf	(??_kpDebounce+1)^0,w,c
  3733  001796  0AFF               	xorlw	255
  3734  001798  1681               	andwf	129,f,c	;volatile
  3735  00179A                     
  3736                           ;keypad.c: 63:         for (int k = 0; k < 10; k++);
  3737  00179A  0E00               	movlw	0
  3738  00179C  6E38               	movwf	(kpDebounce@k+1)^0,c
  3739  00179E  0E00               	movlw	0
  3740  0017A0  6E37               	movwf	kpDebounce@k^0,c
  3741  0017A2                     l2541:
  3742  0017A2  4A37               	infsnz	kpDebounce@k^0,f,c
  3743  0017A4  2A38               	incf	(kpDebounce@k+1)^0,f,c
  3744  0017A6  BE38               	btfsc	(kpDebounce@k+1)^0,7,c
  3745  0017A8  EFDF  F00B         	goto	u2381
  3746  0017AC  5038               	movf	(kpDebounce@k+1)^0,w,c
  3747  0017AE  E109               	bnz	u2380
  3748  0017B0  0E0A               	movlw	10
  3749  0017B2  5C37               	subwf	kpDebounce@k^0,w,c
  3750  0017B4  A0D8               	btfss	status,0,c
  3751  0017B6  EFDF  F00B         	goto	u2381
  3752  0017BA  EFE1  F00B         	goto	u2380
  3753  0017BE                     u2381:
  3754  0017BE  EFD1  F00B         	goto	l2541
  3755  0017C2                     u2380:
  3756  0017C2                     
  3757                           ;keypad.c: 66:         for (j = 0; j < 4; j++) {
  3758  0017C2  0E00               	movlw	0
  3759  0017C4  6E39               	movwf	kpDebounce@j^0,c
  3760  0017C6                     l2551:
  3761                           
  3762                           ;keypad.c: 67:             if (!((PORTD) & (1<<(j)))) {
  3763  0017C6  C039  F031         	movff	kpDebounce@j,??_kpDebounce
  3764  0017CA  0E01               	movlw	1
  3765  0017CC  6E32               	movwf	(??_kpDebounce+1)^0,c
  3766  0017CE  2A31               	incf	??_kpDebounce^0,f,c
  3767  0017D0  EFEC  F00B         	goto	u2394
  3768  0017D4                     u2395:
  3769  0017D4  90D8               	bcf	status,0,c
  3770  0017D6  3632               	rlcf	(??_kpDebounce+1)^0,f,c
  3771  0017D8                     u2394:
  3772  0017D8  2E31               	decfsz	??_kpDebounce^0,f,c
  3773  0017DA  EFEA  F00B         	goto	u2395
  3774  0017DE  5032               	movf	(??_kpDebounce+1)^0,w,c
  3775  0017E0  1483               	andwf	131,w,c	;volatile
  3776  0017E2  0900               	iorlw	0
  3777  0017E4  A4D8               	btfss	status,2,c
  3778  0017E6  EFF7  F00B         	goto	u2401
  3779  0017EA  EFF9  F00B         	goto	u2400
  3780  0017EE                     u2401:
  3781  0017EE  EF11  F00C         	goto	l2555
  3782  0017F2                     u2400:
  3783  0017F2                     
  3784                           ;keypad.c: 68:                 ((valorNovo) |= (1<<((i * 4) + j)));
  3785  0017F2  503A               	movf	kpDebounce@i^0,w,c
  3786  0017F4  0D04               	mullw	4
  3787  0017F6  50F3               	movf	243,w,c
  3788  0017F8  2439               	addwf	kpDebounce@j^0,w,c
  3789  0017FA  6E31               	movwf	??_kpDebounce^0,c
  3790  0017FC  0E01               	movlw	1
  3791  0017FE  6E32               	movwf	(??_kpDebounce+1)^0,c
  3792  001800  0E00               	movlw	0
  3793  001802  6E33               	movwf	(??_kpDebounce+2)^0,c
  3794  001804  2A31               	incf	??_kpDebounce^0,f,c
  3795  001806  EF08  F00C         	goto	u2414
  3796  00180A                     u2415:
  3797  00180A  90D8               	bcf	status,0,c
  3798  00180C  3632               	rlcf	(??_kpDebounce+1)^0,f,c
  3799  00180E  3633               	rlcf	(??_kpDebounce+2)^0,f,c
  3800  001810                     u2414:
  3801  001810  2E31               	decfsz	??_kpDebounce^0,f,c
  3802  001812  EF05  F00C         	goto	u2415
  3803  001816  5032               	movf	(??_kpDebounce+1)^0,w,c
  3804  001818  124C               	iorwf	kpDebounce@valorNovo^0,f,c
  3805  00181A  5033               	movf	(??_kpDebounce+2)^0,w,c
  3806  00181C  124D               	iorwf	(kpDebounce@valorNovo+1)^0,f,c
  3807                           
  3808                           ;keypad.c: 69:             } else {
  3809  00181E  EF2B  F00C         	goto	l2557
  3810  001822                     l2555:
  3811                           
  3812                           ;keypad.c: 70:                 ((valorNovo) &= ~(1<<((i * 4) + j)));
  3813  001822  503A               	movf	kpDebounce@i^0,w,c
  3814  001824  0D04               	mullw	4
  3815  001826  50F3               	movf	243,w,c
  3816  001828  2439               	addwf	kpDebounce@j^0,w,c
  3817  00182A  6E31               	movwf	??_kpDebounce^0,c
  3818  00182C  0E01               	movlw	1
  3819  00182E  6E32               	movwf	(??_kpDebounce+1)^0,c
  3820  001830  0E00               	movlw	0
  3821  001832  6E33               	movwf	(??_kpDebounce+2)^0,c
  3822  001834  2A31               	incf	??_kpDebounce^0,f,c
  3823  001836  EF20  F00C         	goto	u2424
  3824  00183A                     u2425:
  3825  00183A  90D8               	bcf	status,0,c
  3826  00183C  3632               	rlcf	(??_kpDebounce+1)^0,f,c
  3827  00183E  3633               	rlcf	(??_kpDebounce+2)^0,f,c
  3828  001840                     u2424:
  3829  001840  2E31               	decfsz	??_kpDebounce^0,f,c
  3830  001842  EF1D  F00C         	goto	u2425
  3831  001846  1C32               	comf	(??_kpDebounce+1)^0,w,c
  3832  001848  6E34               	movwf	(??_kpDebounce+3)^0,c
  3833  00184A  1C33               	comf	(??_kpDebounce+2)^0,w,c
  3834  00184C  6E35               	movwf	(??_kpDebounce+4)^0,c
  3835  00184E  5034               	movf	(??_kpDebounce+3)^0,w,c
  3836  001850  164C               	andwf	kpDebounce@valorNovo^0,f,c
  3837  001852  5035               	movf	(??_kpDebounce+4)^0,w,c
  3838  001854  164D               	andwf	(kpDebounce@valorNovo+1)^0,f,c
  3839  001856                     l2557:
  3840                           
  3841                           ;keypad.c: 72:         }
  3842  001856  2A39               	incf	kpDebounce@j^0,f,c
  3843  001858  0E03               	movlw	3
  3844  00185A  6439               	cpfsgt	kpDebounce@j^0,c
  3845  00185C  EF32  F00C         	goto	u2431
  3846  001860  EF34  F00C         	goto	u2430
  3847  001864                     u2431:
  3848  001864  EFE3  F00B         	goto	l2551
  3849  001868                     u2430:
  3850  001868                     
  3851                           ;keypad.c: 73:     }
  3852  001868  2A3A               	incf	kpDebounce@i^0,f,c
  3853  00186A  0E02               	movlw	2
  3854  00186C  643A               	cpfsgt	kpDebounce@i^0,c
  3855  00186E  EF3B  F00C         	goto	u2441
  3856  001872  EF3D  F00C         	goto	u2440
  3857  001876                     u2441:
  3858  001876  EFAC  F00B         	goto	l2533
  3859  00187A                     u2440:
  3860  00187A                     
  3861                           ;keypad.c: 74:     if (valorAntigo == valorNovo) {
  3862  00187A  504C               	movf	kpDebounce@valorNovo^0,w,c
  3863  00187C  184A               	xorwf	kpDebounce@valorAntigo^0,w,c
  3864  00187E  E107               	bnz	u2451
  3865  001880  504D               	movf	(kpDebounce@valorNovo+1)^0,w,c
  3866  001882  184B               	xorwf	(kpDebounce@valorAntigo+1)^0,w,c
  3867  001884  A4D8               	btfss	status,2,c
  3868  001886  EF47  F00C         	goto	u2451
  3869  00188A  EF49  F00C         	goto	u2450
  3870  00188E                     u2451:
  3871  00188E  EF4C  F00C         	goto	l2569
  3872  001892                     u2450:
  3873  001892                     
  3874                           ;keypad.c: 75:         tempo--;
  3875  001892  0655               	decf	kpDebounce@tempo^0,f,c
  3876                           
  3877                           ;keypad.c: 76:     } else {
  3878  001894  EF52  F00C         	goto	l107
  3879  001898                     l2569:
  3880                           
  3881                           ;keypad.c: 77:         tempo = 10;
  3882  001898  0E0A               	movlw	10
  3883  00189A  6E55               	movwf	kpDebounce@tempo^0,c
  3884  00189C                     
  3885                           ;keypad.c: 78:         valorAntigo = valorNovo;
  3886  00189C  C04C  F04A         	movff	kpDebounce@valorNovo,kpDebounce@valorAntigo
  3887  0018A0  C04D  F04B         	movff	kpDebounce@valorNovo+1,kpDebounce@valorAntigo+1
  3888  0018A4                     l107:
  3889                           
  3890                           ;keypad.c: 80:     if (tempo == 0) {
  3891  0018A4  5055               	movf	kpDebounce@tempo^0,w,c
  3892  0018A6  A4D8               	btfss	status,2,c
  3893  0018A8  EF58  F00C         	goto	u2461
  3894  0018AC  EF5A  F00C         	goto	u2460
  3895  0018B0                     u2461:
  3896  0018B0  EF5E  F00C         	goto	l108
  3897  0018B4                     u2460:
  3898  0018B4                     
  3899                           ;keypad.c: 81:         valor = valorAntigo;
  3900  0018B4  C04A  F04E         	movff	kpDebounce@valorAntigo,_valor
  3901  0018B8  C04B  F04F         	movff	kpDebounce@valorAntigo+1,_valor+1
  3902  0018BC                     l108:
  3903                           
  3904                           ;keypad.c: 83:     PORTD = old_D;
  3905  0018BC  C036  FF83         	movff	kpDebounce@old_D,3971	;volatile
  3906  0018C0                     
  3907                           ;keypad.c: 84:     TRISD = 0x00;
  3908  0018C0  0E00               	movlw	0
  3909  0018C2  6E95               	movwf	149,c	;volatile
  3910  0018C4  0012               	return		;funcret
  3911  0018C6                     __end_of_kpDebounce:
  3912                           	callstack 0
  3913                           
  3914 ;; *************** function _itoa *****************
  3915 ;; Defined at:
  3916 ;;		line 26 in file "itoa.c"
  3917 ;; Parameters:    Size  Location     Type
  3918 ;;  val             2   20[COMRAM] unsigned int 
  3919 ;;  str             2   22[COMRAM] PTR unsigned char 
  3920 ;;		 -> main@str(6), 
  3921 ;; Auto vars:     Size  Location     Type
  3922 ;;		None
  3923 ;; Return value:  Size  Location     Type
  3924 ;;                  1    wreg      void 
  3925 ;; Registers used:
  3926 ;;		wreg, fsr2l, fsr2h, status,2, status,0, cstack
  3927 ;; Tracked objects:
  3928 ;;		On entry : 0/0
  3929 ;;		On exit  : 0/0
  3930 ;;		Unchanged: 0/0
  3931 ;; Data sizes:     COMRAM   BANK0   BANK1   BANK2   BANK3   BANK4   BANK5
  3932 ;;      Params:         4       0       0       0       0       0       0
  3933 ;;      Locals:         0       0       0       0       0       0       0
  3934 ;;      Temps:          0       0       0       0       0       0       0
  3935 ;;      Totals:         4       0       0       0       0       0       0
  3936 ;;Total ram usage:        4 bytes
  3937 ;; Hardware stack levels used: 1
  3938 ;; Hardware stack levels required when called: 1
  3939 ;; This function calls:
  3940 ;;		___lwdiv
  3941 ;;		___lwmod
  3942 ;; This function is called by:
  3943 ;;		_main
  3944 ;; This function uses a non-reentrant model
  3945 ;;
  3946                           
  3947                           	psect	text17
  3948  001C80                     __ptext17:
  3949                           	callstack 0
  3950  001C80                     _itoa:
  3951                           	callstack 29
  3952  001C80                     
  3953                           ;itoa.c: 26: void itoa(unsigned int val, char* str );itoa.c: 27: {;itoa.c: 28:   str[0]=
      +                          (val/10000)+0x30;
  3954  001C80  C045  F03E         	movff	itoa@val,___lwdiv@dividend
  3955  001C84  C046  F03F         	movff	itoa@val+1,___lwdiv@dividend+1
  3956  001C88  0E27               	movlw	39
  3957  001C8A  6E41               	movwf	(___lwdiv@divisor+1)^0,c
  3958  001C8C  0E10               	movlw	16
  3959  001C8E  6E40               	movwf	___lwdiv@divisor^0,c
  3960  001C90  EC4E  F010         	call	___lwdiv	;wreg free
  3961  001C94  503E               	movf	?___lwdiv^0,w,c
  3962  001C96  0F30               	addlw	48
  3963  001C98  C047  FFD9         	movff	itoa@str,fsr2l
  3964  001C9C  C048  FFDA         	movff	itoa@str+1,fsr2h
  3965  001CA0  6EDF               	movwf	indf2,c
  3966                           
  3967                           ;itoa.c: 29:   str[1]=((val%10000)/1000)+0x30;
  3968  001CA2  EE20 F001          	lfsr	2,1
  3969  001CA6  5047               	movf	itoa@str^0,w,c
  3970  001CA8  26D9               	addwf	fsr2l,f,c
  3971  001CAA  5048               	movf	(itoa@str+1)^0,w,c
  3972  001CAC  22DA               	addwfc	fsr2h,f,c
  3973  001CAE  0E27               	movlw	39
  3974  001CB0  6E34               	movwf	(___lwmod@divisor+1)^0,c
  3975  001CB2  0E10               	movlw	16
  3976  001CB4  6E33               	movwf	___lwmod@divisor^0,c
  3977  001CB6  C045  F031         	movff	itoa@val,___lwmod@dividend
  3978  001CBA  C046  F032         	movff	itoa@val+1,___lwmod@dividend+1
  3979  001CBE  EC28  F011         	call	___lwmod	;wreg free
  3980  001CC2  C031  F03E         	movff	?___lwmod,___lwdiv@dividend
  3981  001CC6  C032  F03F         	movff	?___lwmod+1,___lwdiv@dividend+1
  3982  001CCA  0E03               	movlw	3
  3983  001CCC  6E41               	movwf	(___lwdiv@divisor+1)^0,c
  3984  001CCE  0EE8               	movlw	232
  3985  001CD0  6E40               	movwf	___lwdiv@divisor^0,c
  3986  001CD2  EC4E  F010         	call	___lwdiv	;wreg free
  3987  001CD6  503E               	movf	?___lwdiv^0,w,c
  3988  001CD8  0F30               	addlw	48
  3989  001CDA  6EDF               	movwf	indf2,c
  3990                           
  3991                           ;itoa.c: 30:   str[2]=((val%1000)/100)+0x30;
  3992  001CDC  EE20 F002          	lfsr	2,2
  3993  001CE0  5047               	movf	itoa@str^0,w,c
  3994  001CE2  26D9               	addwf	fsr2l,f,c
  3995  001CE4  5048               	movf	(itoa@str+1)^0,w,c
  3996  001CE6  22DA               	addwfc	fsr2h,f,c
  3997  001CE8  0E03               	movlw	3
  3998  001CEA  6E34               	movwf	(___lwmod@divisor+1)^0,c
  3999  001CEC  0EE8               	movlw	232
  4000  001CEE  6E33               	movwf	___lwmod@divisor^0,c
  4001  001CF0  C045  F031         	movff	itoa@val,___lwmod@dividend
  4002  001CF4  C046  F032         	movff	itoa@val+1,___lwmod@dividend+1
  4003  001CF8  EC28  F011         	call	___lwmod	;wreg free
  4004  001CFC  C031  F03E         	movff	?___lwmod,___lwdiv@dividend
  4005  001D00  C032  F03F         	movff	?___lwmod+1,___lwdiv@dividend+1
  4006  001D04  0E00               	movlw	0
  4007  001D06  6E41               	movwf	(___lwdiv@divisor+1)^0,c
  4008  001D08  0E64               	movlw	100
  4009  001D0A  6E40               	movwf	___lwdiv@divisor^0,c
  4010  001D0C  EC4E  F010         	call	___lwdiv	;wreg free
  4011  001D10  503E               	movf	?___lwdiv^0,w,c
  4012  001D12  0F30               	addlw	48
  4013  001D14  6EDF               	movwf	indf2,c
  4014                           
  4015                           ;itoa.c: 31:   str[3]=((val%100)/10)+0x30;
  4016  001D16  EE20 F003          	lfsr	2,3
  4017  001D1A  5047               	movf	itoa@str^0,w,c
  4018  001D1C  26D9               	addwf	fsr2l,f,c
  4019  001D1E  5048               	movf	(itoa@str+1)^0,w,c
  4020  001D20  22DA               	addwfc	fsr2h,f,c
  4021  001D22  0E00               	movlw	0
  4022  001D24  6E34               	movwf	(___lwmod@divisor+1)^0,c
  4023  001D26  0E64               	movlw	100
  4024  001D28  6E33               	movwf	___lwmod@divisor^0,c
  4025  001D2A  C045  F031         	movff	itoa@val,___lwmod@dividend
  4026  001D2E  C046  F032         	movff	itoa@val+1,___lwmod@dividend+1
  4027  001D32  EC28  F011         	call	___lwmod	;wreg free
  4028  001D36  C031  F03E         	movff	?___lwmod,___lwdiv@dividend
  4029  001D3A  C032  F03F         	movff	?___lwmod+1,___lwdiv@dividend+1
  4030  001D3E  0E00               	movlw	0
  4031  001D40  6E41               	movwf	(___lwdiv@divisor+1)^0,c
  4032  001D42  0E0A               	movlw	10
  4033  001D44  6E40               	movwf	___lwdiv@divisor^0,c
  4034  001D46  EC4E  F010         	call	___lwdiv	;wreg free
  4035  001D4A  503E               	movf	?___lwdiv^0,w,c
  4036  001D4C  0F30               	addlw	48
  4037  001D4E  6EDF               	movwf	indf2,c
  4038                           
  4039                           ;itoa.c: 32:   str[4]=(val%10)+0x30;
  4040  001D50  EE20 F004          	lfsr	2,4
  4041  001D54  5047               	movf	itoa@str^0,w,c
  4042  001D56  26D9               	addwf	fsr2l,f,c
  4043  001D58  5048               	movf	(itoa@str+1)^0,w,c
  4044  001D5A  22DA               	addwfc	fsr2h,f,c
  4045  001D5C  C045  F031         	movff	itoa@val,___lwmod@dividend
  4046  001D60  C046  F032         	movff	itoa@val+1,___lwmod@dividend+1
  4047  001D64  0E00               	movlw	0
  4048  001D66  6E34               	movwf	(___lwmod@divisor+1)^0,c
  4049  001D68  0E0A               	movlw	10
  4050  001D6A  6E33               	movwf	___lwmod@divisor^0,c
  4051  001D6C  EC28  F011         	call	___lwmod	;wreg free
  4052  001D70  5031               	movf	?___lwmod^0,w,c
  4053  001D72  0F30               	addlw	48
  4054  001D74  6EDF               	movwf	indf2,c
  4055  001D76                     
  4056                           ;itoa.c: 33:   str[5]=0;
  4057  001D76  EE20 F005          	lfsr	2,5
  4058  001D7A  5047               	movf	itoa@str^0,w,c
  4059  001D7C  26D9               	addwf	fsr2l,f,c
  4060  001D7E  5048               	movf	(itoa@str+1)^0,w,c
  4061  001D80  22DA               	addwfc	fsr2h,f,c
  4062  001D82  0E00               	movlw	0
  4063  001D84  6EDF               	movwf	indf2,c
  4064  001D86  0012               	return		;funcret
  4065  001D88                     __end_of_itoa:
  4066                           	callstack 0
  4067                           
  4068 ;; *************** function ___lwmod *****************
  4069 ;; Defined at:
  4070 ;;		line 7 in file "C:\Program Files\Microchip\xc8\v2.32\pic\sources\c99\common\lwmod.c"
  4071 ;; Parameters:    Size  Location     Type
  4072 ;;  dividend        2    0[COMRAM] unsigned int 
  4073 ;;  divisor         2    2[COMRAM] unsigned int 
  4074 ;; Auto vars:     Size  Location     Type
  4075 ;;  counter         1    4[COMRAM] unsigned char 
  4076 ;; Return value:  Size  Location     Type
  4077 ;;                  2    0[COMRAM] unsigned int 
  4078 ;; Registers used:
  4079 ;;		wreg, status,2, status,0
  4080 ;; Tracked objects:
  4081 ;;		On entry : 0/0
  4082 ;;		On exit  : 0/0
  4083 ;;		Unchanged: 0/0
  4084 ;; Data sizes:     COMRAM   BANK0   BANK1   BANK2   BANK3   BANK4   BANK5
  4085 ;;      Params:         4       0       0       0       0       0       0
  4086 ;;      Locals:         1       0       0       0       0       0       0
  4087 ;;      Temps:          0       0       0       0       0       0       0
  4088 ;;      Totals:         5       0       0       0       0       0       0
  4089 ;;Total ram usage:        5 bytes
  4090 ;; Hardware stack levels used: 1
  4091 ;; This function calls:
  4092 ;;		Nothing
  4093 ;; This function is called by:
  4094 ;;		_itoa
  4095 ;; This function uses a non-reentrant model
  4096 ;;
  4097                           
  4098                           	psect	text18
  4099  002250                     __ptext18:
  4100                           	callstack 0
  4101  002250                     ___lwmod:
  4102                           	callstack 29
  4103  002250  5033               	movf	___lwmod@divisor^0,w,c
  4104  002252  1034               	iorwf	(___lwmod@divisor+1)^0,w,c
  4105  002254  B4D8               	btfsc	status,2,c
  4106  002256  EF2F  F011         	goto	u2331
  4107  00225A  EF31  F011         	goto	u2330
  4108  00225E                     u2331:
  4109  00225E  EF55  F011         	goto	l899
  4110  002262                     u2330:
  4111  002262  0E01               	movlw	1
  4112  002264  6E35               	movwf	___lwmod@counter^0,c
  4113  002266  EF39  F011         	goto	l2511
  4114  00226A                     l2509:
  4115  00226A  90D8               	bcf	status,0,c
  4116  00226C  3633               	rlcf	___lwmod@divisor^0,f,c
  4117  00226E  3634               	rlcf	(___lwmod@divisor+1)^0,f,c
  4118  002270  2A35               	incf	___lwmod@counter^0,f,c
  4119  002272                     l2511:
  4120  002272  AE34               	btfss	(___lwmod@divisor+1)^0,7,c
  4121  002274  EF3E  F011         	goto	u2341
  4122  002278  EF40  F011         	goto	u2340
  4123  00227C                     u2341:
  4124  00227C  EF35  F011         	goto	l2509
  4125  002280                     u2340:
  4126  002280                     l2513:
  4127  002280  5033               	movf	___lwmod@divisor^0,w,c
  4128  002282  5C31               	subwf	___lwmod@dividend^0,w,c
  4129  002284  5034               	movf	(___lwmod@divisor+1)^0,w,c
  4130  002286  5832               	subwfb	(___lwmod@dividend+1)^0,w,c
  4131  002288  A0D8               	btfss	status,0,c
  4132  00228A  EF49  F011         	goto	u2351
  4133  00228E  EF4B  F011         	goto	u2350
  4134  002292                     u2351:
  4135  002292  EF4F  F011         	goto	l2517
  4136  002296                     u2350:
  4137  002296  5033               	movf	___lwmod@divisor^0,w,c
  4138  002298  5E31               	subwf	___lwmod@dividend^0,f,c
  4139  00229A  5034               	movf	(___lwmod@divisor+1)^0,w,c
  4140  00229C  5A32               	subwfb	(___lwmod@dividend+1)^0,f,c
  4141  00229E                     l2517:
  4142  00229E  90D8               	bcf	status,0,c
  4143  0022A0  3234               	rrcf	(___lwmod@divisor+1)^0,f,c
  4144  0022A2  3233               	rrcf	___lwmod@divisor^0,f,c
  4145  0022A4  2E35               	decfsz	___lwmod@counter^0,f,c
  4146  0022A6  EF40  F011         	goto	l2513
  4147  0022AA                     l899:
  4148  0022AA  C031  F031         	movff	___lwmod@dividend,?___lwmod
  4149  0022AE  C032  F032         	movff	___lwmod@dividend+1,?___lwmod+1
  4150  0022B2  0012               	return		;funcret
  4151  0022B4                     __end_of___lwmod:
  4152                           	callstack 0
  4153                           
  4154 ;; *************** function ___lwdiv *****************
  4155 ;; Defined at:
  4156 ;;		line 7 in file "C:\Program Files\Microchip\xc8\v2.32\pic\sources\c99\common\lwdiv.c"
  4157 ;; Parameters:    Size  Location     Type
  4158 ;;  dividend        2   13[COMRAM] unsigned int 
  4159 ;;  divisor         2   15[COMRAM] unsigned int 
  4160 ;; Auto vars:     Size  Location     Type
  4161 ;;  quotient        2   17[COMRAM] unsigned int 
  4162 ;;  counter         1   19[COMRAM] unsigned char 
  4163 ;; Return value:  Size  Location     Type
  4164 ;;                  2   13[COMRAM] unsigned int 
  4165 ;; Registers used:
  4166 ;;		wreg, status,2, status,0
  4167 ;; Tracked objects:
  4168 ;;		On entry : 0/0
  4169 ;;		On exit  : 0/0
  4170 ;;		Unchanged: 0/0
  4171 ;; Data sizes:     COMRAM   BANK0   BANK1   BANK2   BANK3   BANK4   BANK5
  4172 ;;      Params:         4       0       0       0       0       0       0
  4173 ;;      Locals:         3       0       0       0       0       0       0
  4174 ;;      Temps:          0       0       0       0       0       0       0
  4175 ;;      Totals:         7       0       0       0       0       0       0
  4176 ;;Total ram usage:        7 bytes
  4177 ;; Hardware stack levels used: 1
  4178 ;; This function calls:
  4179 ;;		Nothing
  4180 ;; This function is called by:
  4181 ;;		_main
  4182 ;;		_itoa
  4183 ;;		_pwmSet
  4184 ;; This function uses a non-reentrant model
  4185 ;;
  4186                           
  4187                           	psect	text19
  4188  00209C                     __ptext19:
  4189                           	callstack 0
  4190  00209C                     ___lwdiv:
  4191                           	callstack 29
  4192  00209C  0E00               	movlw	0
  4193  00209E  6E43               	movwf	(___lwdiv@quotient+1)^0,c
  4194  0020A0  0E00               	movlw	0
  4195  0020A2  6E42               	movwf	___lwdiv@quotient^0,c
  4196  0020A4  5040               	movf	___lwdiv@divisor^0,w,c
  4197  0020A6  1041               	iorwf	(___lwdiv@divisor+1)^0,w,c
  4198  0020A8  B4D8               	btfsc	status,2,c
  4199  0020AA  EF59  F010         	goto	u2301
  4200  0020AE  EF5B  F010         	goto	u2300
  4201  0020B2                     u2301:
  4202  0020B2  EF83  F010         	goto	l889
  4203  0020B6                     u2300:
  4204  0020B6  0E01               	movlw	1
  4205  0020B8  6E44               	movwf	___lwdiv@counter^0,c
  4206  0020BA  EF63  F010         	goto	l2491
  4207  0020BE                     l2489:
  4208  0020BE  90D8               	bcf	status,0,c
  4209  0020C0  3640               	rlcf	___lwdiv@divisor^0,f,c
  4210  0020C2  3641               	rlcf	(___lwdiv@divisor+1)^0,f,c
  4211  0020C4  2A44               	incf	___lwdiv@counter^0,f,c
  4212  0020C6                     l2491:
  4213  0020C6  AE41               	btfss	(___lwdiv@divisor+1)^0,7,c
  4214  0020C8  EF68  F010         	goto	u2311
  4215  0020CC  EF6A  F010         	goto	u2310
  4216  0020D0                     u2311:
  4217  0020D0  EF5F  F010         	goto	l2489
  4218  0020D4                     u2310:
  4219  0020D4                     l2493:
  4220  0020D4  90D8               	bcf	status,0,c
  4221  0020D6  3642               	rlcf	___lwdiv@quotient^0,f,c
  4222  0020D8  3643               	rlcf	(___lwdiv@quotient+1)^0,f,c
  4223  0020DA  5040               	movf	___lwdiv@divisor^0,w,c
  4224  0020DC  5C3E               	subwf	___lwdiv@dividend^0,w,c
  4225  0020DE  5041               	movf	(___lwdiv@divisor+1)^0,w,c
  4226  0020E0  583F               	subwfb	(___lwdiv@dividend+1)^0,w,c
  4227  0020E2  A0D8               	btfss	status,0,c
  4228  0020E4  EF76  F010         	goto	u2321
  4229  0020E8  EF78  F010         	goto	u2320
  4230  0020EC                     u2321:
  4231  0020EC  EF7D  F010         	goto	l2501
  4232  0020F0                     u2320:
  4233  0020F0  5040               	movf	___lwdiv@divisor^0,w,c
  4234  0020F2  5E3E               	subwf	___lwdiv@dividend^0,f,c
  4235  0020F4  5041               	movf	(___lwdiv@divisor+1)^0,w,c
  4236  0020F6  5A3F               	subwfb	(___lwdiv@dividend+1)^0,f,c
  4237  0020F8  8042               	bsf	___lwdiv@quotient^0,0,c
  4238  0020FA                     l2501:
  4239  0020FA  90D8               	bcf	status,0,c
  4240  0020FC  3241               	rrcf	(___lwdiv@divisor+1)^0,f,c
  4241  0020FE  3240               	rrcf	___lwdiv@divisor^0,f,c
  4242  002100  2E44               	decfsz	___lwdiv@counter^0,f,c
  4243  002102  EF6A  F010         	goto	l2493
  4244  002106                     l889:
  4245  002106  C042  F03E         	movff	___lwdiv@quotient,?___lwdiv
  4246  00210A  C043  F03F         	movff	___lwdiv@quotient+1,?___lwdiv+1
  4247  00210E  0012               	return		;funcret
  4248  002110                     __end_of___lwdiv:
  4249                           	callstack 0
  4250                           
  4251 ;; *************** function _clear *****************
  4252 ;; Defined at:
  4253 ;;		line 39 in file "PF.c"
  4254 ;; Parameters:    Size  Location     Type
  4255 ;;  xi              2   11[COMRAM] int 
  4256 ;;  xf              2   13[COMRAM] int 
  4257 ;;  yi              2   15[COMRAM] int 
  4258 ;;  yf              2   17[COMRAM] int 
  4259 ;; Auto vars:     Size  Location     Type
  4260 ;;  j               1   23[COMRAM] unsigned char 
  4261 ;;  i               1   22[COMRAM] unsigned char 
  4262 ;; Return value:  Size  Location     Type
  4263 ;;                  1    wreg      void 
  4264 ;; Registers used:
  4265 ;;		wreg, status,2, status,0, cstack
  4266 ;; Tracked objects:
  4267 ;;		On entry : 0/0
  4268 ;;		On exit  : 0/0
  4269 ;;		Unchanged: 0/0
  4270 ;; Data sizes:     COMRAM   BANK0   BANK1   BANK2   BANK3   BANK4   BANK5
  4271 ;;      Params:         8       0       0       0       0       0       0
  4272 ;;      Locals:         2       0       0       0       0       0       0
  4273 ;;      Temps:          3       0       0       0       0       0       0
  4274 ;;      Totals:        13       0       0       0       0       0       0
  4275 ;;Total ram usage:       13 bytes
  4276 ;; Hardware stack levels used: 1
  4277 ;; Hardware stack levels required when called: 4
  4278 ;; This function calls:
  4279 ;;		_lcdData
  4280 ;;		_lcdPosition
  4281 ;; This function is called by:
  4282 ;;		_main
  4283 ;; This function uses a non-reentrant model
  4284 ;;
  4285                           
  4286                           	psect	text20
  4287  002110                     __ptext20:
  4288                           	callstack 0
  4289  002110                     _clear:
  4290                           	callstack 26
  4291  002110                     
  4292                           ;PF.c: 40:     char i, j;;PF.c: 41:     for (i = xi; i < xf; i++) {
  4293  002110  C03C  F047         	movff	clear@xi,clear@i
  4294  002114  EFAC  F010         	goto	l2705
  4295  002118                     l299:
  4296                           
  4297                           ;PF.c: 42:         for (j = yi; j < yf; j++) {
  4298  002118  C040  F048         	movff	clear@yi,clear@j
  4299  00211C  EF99  F010         	goto	l2701
  4300  002120                     l2697:
  4301                           
  4302                           ;PF.c: 43:             lcdPosition(i, j);
  4303  002120  C048  F039         	movff	clear@j,lcdPosition@coluna
  4304  002124  5047               	movf	clear@i^0,w,c
  4305  002126  ECF5  F010         	call	_lcdPosition
  4306                           
  4307                           ;PF.c: 44:             lcdData(0x01);
  4308  00212A  0E01               	movlw	1
  4309  00212C  ECDC  F011         	call	_lcdData
  4310  002130                     
  4311                           ;PF.c: 45:         }
  4312  002130  2A48               	incf	clear@j^0,f,c
  4313  002132                     l2701:
  4314  002132  5048               	movf	clear@j^0,w,c
  4315  002134  6E44               	movwf	??_clear^0,c
  4316  002136  6A45               	clrf	(??_clear+1)^0,c
  4317  002138  5042               	movf	clear@yf^0,w,c
  4318  00213A  5C44               	subwf	??_clear^0,w,c
  4319  00213C  5045               	movf	(??_clear+1)^0,w,c
  4320  00213E  0A80               	xorlw	128
  4321  002140  6E46               	movwf	(??_clear+2)^0,c
  4322  002142  5043               	movf	(clear@yf+1)^0,w,c
  4323  002144  0A80               	xorlw	128
  4324  002146  5846               	subwfb	(??_clear+2)^0,w,c
  4325  002148  A0D8               	btfss	status,0,c
  4326  00214A  EFA9  F010         	goto	u2521
  4327  00214E  EFAB  F010         	goto	u2520
  4328  002152                     u2521:
  4329  002152  EF90  F010         	goto	l2697
  4330  002156                     u2520:
  4331  002156                     
  4332                           ;PF.c: 46:     }
  4333  002156  2A47               	incf	clear@i^0,f,c
  4334  002158                     l2705:
  4335  002158  5047               	movf	clear@i^0,w,c
  4336  00215A  6E44               	movwf	??_clear^0,c
  4337  00215C  6A45               	clrf	(??_clear+1)^0,c
  4338  00215E  503E               	movf	clear@xf^0,w,c
  4339  002160  5C44               	subwf	??_clear^0,w,c
  4340  002162  5045               	movf	(??_clear+1)^0,w,c
  4341  002164  0A80               	xorlw	128
  4342  002166  6E46               	movwf	(??_clear+2)^0,c
  4343  002168  503F               	movf	(clear@xf+1)^0,w,c
  4344  00216A  0A80               	xorlw	128
  4345  00216C  5846               	subwfb	(??_clear+2)^0,w,c
  4346  00216E  A0D8               	btfss	status,0,c
  4347  002170  EFBC  F010         	goto	u2531
  4348  002174  EFBE  F010         	goto	u2530
  4349  002178                     u2531:
  4350  002178  EF8C  F010         	goto	l299
  4351  00217C                     u2530:
  4352  00217C  0012               	return		;funcret
  4353  00217E                     __end_of_clear:
  4354                           	callstack 0
  4355                           
  4356 ;; *************** function _lcdPosition *****************
  4357 ;; Defined at:
  4358 ;;		line 13 in file "PF.c"
  4359 ;; Parameters:    Size  Location     Type
  4360 ;;  linha           1    wreg     unsigned char 
  4361 ;;  coluna          1    8[COMRAM] unsigned char 
  4362 ;; Auto vars:     Size  Location     Type
  4363 ;;  linha           1   10[COMRAM] unsigned char 
  4364 ;;  aux             1    9[COMRAM] unsigned char 
  4365 ;; Return value:  Size  Location     Type
  4366 ;;                  1    wreg      void 
  4367 ;; Registers used:
  4368 ;;		wreg, status,2, status,0, cstack
  4369 ;; Tracked objects:
  4370 ;;		On entry : 0/0
  4371 ;;		On exit  : 0/0
  4372 ;;		Unchanged: 0/0
  4373 ;; Data sizes:     COMRAM   BANK0   BANK1   BANK2   BANK3   BANK4   BANK5
  4374 ;;      Params:         1       0       0       0       0       0       0
  4375 ;;      Locals:         2       0       0       0       0       0       0
  4376 ;;      Temps:          0       0       0       0       0       0       0
  4377 ;;      Totals:         3       0       0       0       0       0       0
  4378 ;;Total ram usage:        3 bytes
  4379 ;; Hardware stack levels used: 1
  4380 ;; Hardware stack levels required when called: 3
  4381 ;; This function calls:
  4382 ;;		_lcdCommand
  4383 ;; This function is called by:
  4384 ;;		_main
  4385 ;;		_printf
  4386 ;;		_clear
  4387 ;; This function uses a non-reentrant model
  4388 ;;
  4389                           
  4390                           	psect	text21
  4391  0021EA                     __ptext21:
  4392                           	callstack 0
  4393  0021EA                     _lcdPosition:
  4394                           	callstack 26
  4395                           
  4396                           ;incstack = 0
  4397                           ;lcdPosition@linha stored from wreg
  4398  0021EA  6E3B               	movwf	lcdPosition@linha^0,c
  4399  0021EC                     
  4400                           ;PF.c: 14:     char aux;;PF.c: 16:     if (linha == 0)
  4401  0021EC  503B               	movf	lcdPosition@linha^0,w,c
  4402  0021EE  A4D8               	btfss	status,2,c
  4403  0021F0  EFFC  F010         	goto	u2261
  4404  0021F4  EFFE  F010         	goto	u2260
  4405  0021F8                     u2261:
  4406  0021F8  EF01  F011         	goto	l285
  4407  0021FC                     u2260:
  4408  0021FC                     
  4409                           ;PF.c: 17:         aux = 0x80 + coluna;
  4410  0021FC  5039               	movf	lcdPosition@coluna^0,w,c
  4411  0021FE  0F80               	addlw	128
  4412  002200  6E3A               	movwf	lcdPosition@aux^0,c
  4413  002202                     l285:
  4414                           
  4415                           ;PF.c: 18:     if (linha == 1)
  4416  002202  043B               	decf	lcdPosition@linha^0,w,c
  4417  002204  A4D8               	btfss	status,2,c
  4418  002206  EF07  F011         	goto	u2271
  4419  00220A  EF09  F011         	goto	u2270
  4420  00220E                     u2271:
  4421  00220E  EF0C  F011         	goto	l286
  4422  002212                     u2270:
  4423  002212                     
  4424                           ;PF.c: 19:         aux = 0xC0 + coluna;
  4425  002212  5039               	movf	lcdPosition@coluna^0,w,c
  4426  002214  0FC0               	addlw	192
  4427  002216  6E3A               	movwf	lcdPosition@aux^0,c
  4428  002218                     l286:
  4429                           
  4430                           ;PF.c: 20:     if (linha == 2)
  4431  002218  0E02               	movlw	2
  4432  00221A  183B               	xorwf	lcdPosition@linha^0,w,c
  4433  00221C  A4D8               	btfss	status,2,c
  4434  00221E  EF13  F011         	goto	u2281
  4435  002222  EF15  F011         	goto	u2280
  4436  002226                     u2281:
  4437  002226  EF18  F011         	goto	l287
  4438  00222A                     u2280:
  4439  00222A                     
  4440                           ;PF.c: 21:         aux = 0x90 + coluna;
  4441  00222A  5039               	movf	lcdPosition@coluna^0,w,c
  4442  00222C  0F90               	addlw	144
  4443  00222E  6E3A               	movwf	lcdPosition@aux^0,c
  4444  002230                     l287:
  4445                           
  4446                           ;PF.c: 22:     if (linha == 3)
  4447  002230  0E03               	movlw	3
  4448  002232  183B               	xorwf	lcdPosition@linha^0,w,c
  4449  002234  A4D8               	btfss	status,2,c
  4450  002236  EF1F  F011         	goto	u2291
  4451  00223A  EF21  F011         	goto	u2290
  4452  00223E                     u2291:
  4453  00223E  EF24  F011         	goto	l2473
  4454  002242                     u2290:
  4455  002242                     
  4456                           ;PF.c: 23:         aux = 0xD0 + coluna;
  4457  002242  5039               	movf	lcdPosition@coluna^0,w,c
  4458  002244  0FD0               	addlw	208
  4459  002246  6E3A               	movwf	lcdPosition@aux^0,c
  4460  002248                     l2473:
  4461                           
  4462                           ;PF.c: 24:     lcdCommand(aux);
  4463  002248  503A               	movf	lcdPosition@aux^0,w,c
  4464  00224A  ECD3  F00F         	call	_lcdCommand
  4465  00224E  0012               	return		;funcret
  4466  002250                     __end_of_lcdPosition:
  4467                           	callstack 0
  4468                           
  4469 ;; *************** function _lcdCommand *****************
  4470 ;; Defined at:
  4471 ;;		line 48 in file "lcd.c"
  4472 ;; Parameters:    Size  Location     Type
  4473 ;;  cmd             1    wreg     unsigned char 
  4474 ;; Auto vars:     Size  Location     Type
  4475 ;;  cmd             1    7[COMRAM] unsigned char 
  4476 ;;  old_D           1    6[COMRAM] unsigned char 
  4477 ;; Return value:  Size  Location     Type
  4478 ;;                  1    wreg      void 
  4479 ;; Registers used:
  4480 ;;		wreg, status,2, status,0, cstack
  4481 ;; Tracked objects:
  4482 ;;		On entry : 0/0
  4483 ;;		On exit  : 0/0
  4484 ;;		Unchanged: 0/0
  4485 ;; Data sizes:     COMRAM   BANK0   BANK1   BANK2   BANK3   BANK4   BANK5
  4486 ;;      Params:         0       0       0       0       0       0       0
  4487 ;;      Locals:         2       0       0       0       0       0       0
  4488 ;;      Temps:          0       0       0       0       0       0       0
  4489 ;;      Totals:         2       0       0       0       0       0       0
  4490 ;;Total ram usage:        2 bytes
  4491 ;; Hardware stack levels used: 1
  4492 ;; Hardware stack levels required when called: 2
  4493 ;; This function calls:
  4494 ;;		_Delay2ms
  4495 ;;		_Delay40us
  4496 ;;		_digitalWrite
  4497 ;; This function is called by:
  4498 ;;		_lcdInit
  4499 ;;		_main
  4500 ;;		_lcdPosition
  4501 ;; This function uses a non-reentrant model
  4502 ;;
  4503                           
  4504                           	psect	text22
  4505  001FA6                     __ptext22:
  4506                           	callstack 0
  4507  001FA6                     _lcdCommand:
  4508                           	callstack 26
  4509                           
  4510                           ;incstack = 0
  4511                           ;lcdCommand@cmd stored from wreg
  4512  001FA6  6E38               	movwf	lcdCommand@cmd^0,c
  4513  001FA8                     
  4514                           ;lcd.c: 48: void lcdCommand(unsigned char cmd);lcd.c: 49: {;lcd.c: 50:     unsigned char
      +                           old_D;;lcd.c: 51:     old_D = PORTD;
  4515  001FA8  CF83 F037          	movff	3971,lcdCommand@old_D	;volatile
  4516  001FAC                     
  4517                           ;lcd.c: 54:     TRISD = 0x00;
  4518  001FAC  0E00               	movlw	0
  4519  001FAE  6E95               	movwf	149,c	;volatile
  4520  001FB0                     
  4521                           ;lcd.c: 56:  digitalWrite(PIN_E2, 0);
  4522  001FB0  0E00               	movlw	0
  4523  001FB2  6E32               	movwf	(digitalWrite@pin+1)^0,c
  4524  001FB4  0E22               	movlw	34
  4525  001FB6  6E31               	movwf	digitalWrite@pin^0,c
  4526  001FB8  0E00               	movlw	0
  4527  001FBA  6E34               	movwf	(digitalWrite@value+1)^0,c
  4528  001FBC  0E00               	movlw	0
  4529  001FBE  6E33               	movwf	digitalWrite@value^0,c
  4530  001FC0  EC7F  F00A         	call	_digitalWrite	;wreg free
  4531  001FC4                     
  4532                           ;lcd.c: 57:  PORTD = cmd;
  4533  001FC4  C038  FF83         	movff	lcdCommand@cmd,3971	;volatile
  4534  001FC8                     
  4535                           ;lcd.c: 59:     digitalWrite(PIN_E1, 1);
  4536  001FC8  0E00               	movlw	0
  4537  001FCA  6E32               	movwf	(digitalWrite@pin+1)^0,c
  4538  001FCC  0E21               	movlw	33
  4539  001FCE  6E31               	movwf	digitalWrite@pin^0,c
  4540  001FD0  0E00               	movlw	0
  4541  001FD2  6E34               	movwf	(digitalWrite@value+1)^0,c
  4542  001FD4  0E01               	movlw	1
  4543  001FD6  6E33               	movwf	digitalWrite@value^0,c
  4544  001FD8  EC7F  F00A         	call	_digitalWrite	;wreg free
  4545  001FDC                     
  4546                           ;lcd.c: 60:  digitalWrite(PIN_E1, 0);
  4547  001FDC  0E00               	movlw	0
  4548  001FDE  6E32               	movwf	(digitalWrite@pin+1)^0,c
  4549  001FE0  0E21               	movlw	33
  4550  001FE2  6E31               	movwf	digitalWrite@pin^0,c
  4551  001FE4  0E00               	movlw	0
  4552  001FE6  6E34               	movwf	(digitalWrite@value+1)^0,c
  4553  001FE8  0E00               	movlw	0
  4554  001FEA  6E33               	movwf	digitalWrite@value^0,c
  4555  001FEC  EC7F  F00A         	call	_digitalWrite	;wreg free
  4556  001FF0                     
  4557                           ;lcd.c: 63:     PORTD= old_D;
  4558  001FF0  C037  FF83         	movff	lcdCommand@old_D,3971	;volatile
  4559  001FF4                     
  4560                           ;lcd.c: 65:     if((cmd == 0x02)||(cmd == 0x01)){
  4561  001FF4  0E02               	movlw	2
  4562  001FF6  1838               	xorwf	lcdCommand@cmd^0,w,c
  4563  001FF8  B4D8               	btfsc	status,2,c
  4564  001FFA  EF01  F010         	goto	u1981
  4565  001FFE  EF03  F010         	goto	u1980
  4566  002002                     u1981:
  4567  002002  EF0B  F010         	goto	l2359
  4568  002006                     u1980:
  4569  002006  0438               	decf	lcdCommand@cmd^0,w,c
  4570  002008  A4D8               	btfss	status,2,c
  4571  00200A  EF09  F010         	goto	u1991
  4572  00200E  EF0B  F010         	goto	u1990
  4573  002012                     u1991:
  4574  002012  EF0F  F010         	goto	l2361
  4575  002016                     u1990:
  4576  002016                     l2359:
  4577                           
  4578                           ;lcd.c: 66:        Delay2ms();
  4579  002016  ECAE  F012         	call	_Delay2ms	;wreg free
  4580                           
  4581                           ;lcd.c: 67:     }else{
  4582  00201A  EF11  F010         	goto	l137
  4583  00201E                     l2361:
  4584                           
  4585                           ;lcd.c: 68:     Delay40us();
  4586  00201E  ECC9  F012         	call	_Delay40us	;wreg free
  4587  002022                     l137:
  4588  002022  0012               	return		;funcret
  4589  002024                     __end_of_lcdCommand:
  4590                           	callstack 0
  4591                           
  4592 ;; *************** function _Delay2ms *****************
  4593 ;; Defined at:
  4594 ;;		line 37 in file "lcd.c"
  4595 ;; Parameters:    Size  Location     Type
  4596 ;;		None
  4597 ;; Auto vars:     Size  Location     Type
  4598 ;;  i               1    1[COMRAM] unsigned char 
  4599 ;; Return value:  Size  Location     Type
  4600 ;;                  1    wreg      void 
  4601 ;; Registers used:
  4602 ;;		wreg, status,2, status,0, cstack
  4603 ;; Tracked objects:
  4604 ;;		On entry : 0/0
  4605 ;;		On exit  : 0/0
  4606 ;;		Unchanged: 0/0
  4607 ;; Data sizes:     COMRAM   BANK0   BANK1   BANK2   BANK3   BANK4   BANK5
  4608 ;;      Params:         0       0       0       0       0       0       0
  4609 ;;      Locals:         1       0       0       0       0       0       0
  4610 ;;      Temps:          0       0       0       0       0       0       0
  4611 ;;      Totals:         1       0       0       0       0       0       0
  4612 ;;Total ram usage:        1 bytes
  4613 ;; Hardware stack levels used: 1
  4614 ;; Hardware stack levels required when called: 1
  4615 ;; This function calls:
  4616 ;;		_Delay40us
  4617 ;; This function is called by:
  4618 ;;		_lcdCommand
  4619 ;;		_lcdInit
  4620 ;; This function uses a non-reentrant model
  4621 ;;
  4622                           
  4623                           	psect	text23
  4624  00255C                     __ptext23:
  4625                           	callstack 0
  4626  00255C                     _Delay2ms:
  4627                           	callstack 26
  4628  00255C                     
  4629                           ;lcd.c: 39:  unsigned char i;;lcd.c: 40:  for(i=0; i < 50; i++)
  4630  00255C  0E00               	movlw	0
  4631  00255E  6E32               	movwf	Delay2ms@i^0,c
  4632  002560                     l2335:
  4633                           
  4634                           ;lcd.c: 41:  {;lcd.c: 42:   Delay40us();
  4635  002560  ECC9  F012         	call	_Delay40us	;wreg free
  4636  002564                     
  4637                           ;lcd.c: 43:  }
  4638  002564  2A32               	incf	Delay2ms@i^0,f,c
  4639  002566  0E31               	movlw	49
  4640  002568  6432               	cpfsgt	Delay2ms@i^0,c
  4641  00256A  EFB9  F012         	goto	u1971
  4642  00256E  EFBB  F012         	goto	u1970
  4643  002572                     u1971:
  4644  002572  EFB0  F012         	goto	l2335
  4645  002576                     u1970:
  4646  002576  0012               	return		;funcret
  4647  002578                     __end_of_Delay2ms:
  4648                           	callstack 0
  4649                           
  4650 ;; *************** function _lcdData *****************
  4651 ;; Defined at:
  4652 ;;		line 74 in file "lcd.c"
  4653 ;; Parameters:    Size  Location     Type
  4654 ;;  valor           1    wreg     unsigned char 
  4655 ;; Auto vars:     Size  Location     Type
  4656 ;;  valor           1    6[COMRAM] unsigned char 
  4657 ;;  old_D           1    7[COMRAM] unsigned char 
  4658 ;; Return value:  Size  Location     Type
  4659 ;;                  1    wreg      void 
  4660 ;; Registers used:
  4661 ;;		wreg, status,2, status,0, cstack
  4662 ;; Tracked objects:
  4663 ;;		On entry : 0/0
  4664 ;;		On exit  : 0/0
  4665 ;;		Unchanged: 0/0
  4666 ;; Data sizes:     COMRAM   BANK0   BANK1   BANK2   BANK3   BANK4   BANK5
  4667 ;;      Params:         0       0       0       0       0       0       0
  4668 ;;      Locals:         2       0       0       0       0       0       0
  4669 ;;      Temps:          0       0       0       0       0       0       0
  4670 ;;      Totals:         2       0       0       0       0       0       0
  4671 ;;Total ram usage:        2 bytes
  4672 ;; Hardware stack levels used: 1
  4673 ;; Hardware stack levels required when called: 1
  4674 ;; This function calls:
  4675 ;;		_Delay40us
  4676 ;;		_digitalWrite
  4677 ;; This function is called by:
  4678 ;;		_lcd_str
  4679 ;;		_main
  4680 ;;		_printf
  4681 ;;		_clear
  4682 ;; This function uses a non-reentrant model
  4683 ;;
  4684                           
  4685                           	psect	text24
  4686  0023B8                     __ptext24:
  4687                           	callstack 0
  4688  0023B8                     _lcdData:
  4689                           	callstack 28
  4690                           
  4691                           ;incstack = 0
  4692                           ;lcdData@valor stored from wreg
  4693  0023B8  6E37               	movwf	lcdData@valor^0,c
  4694  0023BA                     
  4695                           ;lcd.c: 74: void lcdData(unsigned char valor);lcd.c: 75: {;lcd.c: 77:     unsigned char 
      +                          old_D;;lcd.c: 78:     old_D = PORTD;
  4696  0023BA  CF83 F038          	movff	3971,lcdData@old_D	;volatile
  4697  0023BE                     
  4698                           ;lcd.c: 80:     TRISD = 0x00;
  4699  0023BE  0E00               	movlw	0
  4700  0023C0  6E95               	movwf	149,c	;volatile
  4701  0023C2                     
  4702                           ;lcd.c: 81:  digitalWrite(PIN_E2, 1);
  4703  0023C2  0E00               	movlw	0
  4704  0023C4  6E32               	movwf	(digitalWrite@pin+1)^0,c
  4705  0023C6  0E22               	movlw	34
  4706  0023C8  6E31               	movwf	digitalWrite@pin^0,c
  4707  0023CA  0E00               	movlw	0
  4708  0023CC  6E34               	movwf	(digitalWrite@value+1)^0,c
  4709  0023CE  0E01               	movlw	1
  4710  0023D0  6E33               	movwf	digitalWrite@value^0,c
  4711  0023D2  EC7F  F00A         	call	_digitalWrite	;wreg free
  4712  0023D6                     
  4713                           ;lcd.c: 83:  PORTD = valor;
  4714  0023D6  C037  FF83         	movff	lcdData@valor,3971	;volatile
  4715  0023DA                     
  4716                           ;lcd.c: 85:     digitalWrite(PIN_E1, 1);
  4717  0023DA  0E00               	movlw	0
  4718  0023DC  6E32               	movwf	(digitalWrite@pin+1)^0,c
  4719  0023DE  0E21               	movlw	33
  4720  0023E0  6E31               	movwf	digitalWrite@pin^0,c
  4721  0023E2  0E00               	movlw	0
  4722  0023E4  6E34               	movwf	(digitalWrite@value+1)^0,c
  4723  0023E6  0E01               	movlw	1
  4724  0023E8  6E33               	movwf	digitalWrite@value^0,c
  4725  0023EA  EC7F  F00A         	call	_digitalWrite	;wreg free
  4726  0023EE                     
  4727                           ;lcd.c: 86:  digitalWrite(PIN_E1, 0);
  4728  0023EE  0E00               	movlw	0
  4729  0023F0  6E32               	movwf	(digitalWrite@pin+1)^0,c
  4730  0023F2  0E21               	movlw	33
  4731  0023F4  6E31               	movwf	digitalWrite@pin^0,c
  4732  0023F6  0E00               	movlw	0
  4733  0023F8  6E34               	movwf	(digitalWrite@value+1)^0,c
  4734  0023FA  0E00               	movlw	0
  4735  0023FC  6E33               	movwf	digitalWrite@value^0,c
  4736  0023FE  EC7F  F00A         	call	_digitalWrite	;wreg free
  4737  002402                     
  4738                           ;lcd.c: 88:     PORTD= old_D;
  4739  002402  C038  FF83         	movff	lcdData@old_D,3971	;volatile
  4740  002406                     
  4741                           ;lcd.c: 90:  Delay40us();
  4742  002406  ECC9  F012         	call	_Delay40us	;wreg free
  4743  00240A  0012               	return		;funcret
  4744  00240C                     __end_of_lcdData:
  4745                           	callstack 0
  4746                           
  4747 ;; *************** function _digitalWrite *****************
  4748 ;; Defined at:
  4749 ;;		line 14 in file "io.c"
  4750 ;; Parameters:    Size  Location     Type
  4751 ;;  pin             2    0[COMRAM] int 
  4752 ;;  value           2    2[COMRAM] int 
  4753 ;; Auto vars:     Size  Location     Type
  4754 ;;		None
  4755 ;; Return value:  Size  Location     Type
  4756 ;;                  1    wreg      void 
  4757 ;; Registers used:
  4758 ;;		wreg, status,2, status,0
  4759 ;; Tracked objects:
  4760 ;;		On entry : 0/0
  4761 ;;		On exit  : 0/0
  4762 ;;		Unchanged: 0/0
  4763 ;; Data sizes:     COMRAM   BANK0   BANK1   BANK2   BANK3   BANK4   BANK5
  4764 ;;      Params:         4       0       0       0       0       0       0
  4765 ;;      Locals:         0       0       0       0       0       0       0
  4766 ;;      Temps:          2       0       0       0       0       0       0
  4767 ;;      Totals:         6       0       0       0       0       0       0
  4768 ;;Total ram usage:        6 bytes
  4769 ;; Hardware stack levels used: 1
  4770 ;; This function calls:
  4771 ;;		Nothing
  4772 ;; This function is called by:
  4773 ;;		_lcdCommand
  4774 ;;		_lcdData
  4775 ;;		_ssdUpdate
  4776 ;; This function uses a non-reentrant model
  4777 ;;
  4778                           
  4779                           	psect	text25
  4780  0014FE                     __ptext25:
  4781                           	callstack 0
  4782  0014FE                     _digitalWrite:
  4783                           	callstack 29
  4784  0014FE                     
  4785                           ;io.c: 16:     if(pin <8){
  4786  0014FE  BE32               	btfsc	(digitalWrite@pin+1)^0,7,c
  4787  001500  EF8D  F00A         	goto	u1770
  4788  001504  5032               	movf	(digitalWrite@pin+1)^0,w,c
  4789  001506  E107               	bnz	u1771
  4790  001508  0E08               	movlw	8
  4791  00150A  5C31               	subwf	digitalWrite@pin^0,w,c
  4792  00150C  B0D8               	btfsc	status,0,c
  4793  00150E  EF8B  F00A         	goto	u1771
  4794  001512  EF8D  F00A         	goto	u1770
  4795  001516                     u1771:
  4796  001516  EFB7  F00A         	goto	l2297
  4797  00151A                     u1770:
  4798  00151A                     
  4799                           ;io.c: 17:         if (value){ ((PORTA) |= (1<<(pin)));}
  4800  00151A  5033               	movf	digitalWrite@value^0,w,c
  4801  00151C  1034               	iorwf	(digitalWrite@value+1)^0,w,c
  4802  00151E  B4D8               	btfsc	status,2,c
  4803  001520  EF94  F00A         	goto	u1781
  4804  001524  EF96  F00A         	goto	u1780
  4805  001528                     u1781:
  4806  001528  EFA6  F00A         	goto	l2295
  4807  00152C                     u1780:
  4808  00152C  C031  F035         	movff	digitalWrite@pin,??_digitalWrite
  4809  001530  0E01               	movlw	1
  4810  001532  6E36               	movwf	(??_digitalWrite+1)^0,c
  4811  001534  2A35               	incf	??_digitalWrite^0,f,c
  4812  001536  EF9F  F00A         	goto	u1794
  4813  00153A                     u1795:
  4814  00153A  90D8               	bcf	status,0,c
  4815  00153C  3636               	rlcf	(??_digitalWrite+1)^0,f,c
  4816  00153E                     u1794:
  4817  00153E  2E35               	decfsz	??_digitalWrite^0,f,c
  4818  001540  EF9D  F00A         	goto	u1795
  4819  001544  5036               	movf	(??_digitalWrite+1)^0,w,c
  4820  001546  1280               	iorwf	128,f,c	;volatile
  4821  001548  EFA5  F00B         	goto	l42
  4822  00154C                     l2295:
  4823  00154C  C031  F035         	movff	digitalWrite@pin,??_digitalWrite
  4824  001550  0E01               	movlw	1
  4825  001552  6E36               	movwf	(??_digitalWrite+1)^0,c
  4826  001554  2A35               	incf	??_digitalWrite^0,f,c
  4827  001556  EFAF  F00A         	goto	u1804
  4828  00155A                     u1805:
  4829  00155A  90D8               	bcf	status,0,c
  4830  00155C  3636               	rlcf	(??_digitalWrite+1)^0,f,c
  4831  00155E                     u1804:
  4832  00155E  2E35               	decfsz	??_digitalWrite^0,f,c
  4833  001560  EFAD  F00A         	goto	u1805
  4834  001564  5036               	movf	(??_digitalWrite+1)^0,w,c
  4835  001566  0AFF               	xorlw	255
  4836  001568  1680               	andwf	128,f,c	;volatile
  4837  00156A  EFA5  F00B         	goto	l42
  4838  00156E                     l2297:
  4839  00156E  BE32               	btfsc	(digitalWrite@pin+1)^0,7,c
  4840  001570  EFC5  F00A         	goto	u1810
  4841  001574  5032               	movf	(digitalWrite@pin+1)^0,w,c
  4842  001576  E107               	bnz	u1811
  4843  001578  0E10               	movlw	16
  4844  00157A  5C31               	subwf	digitalWrite@pin^0,w,c
  4845  00157C  B0D8               	btfsc	status,0,c
  4846  00157E  EFC3  F00A         	goto	u1811
  4847  001582  EFC5  F00A         	goto	u1810
  4848  001586                     u1811:
  4849  001586  EFF3  F00A         	goto	l2305
  4850  00158A                     u1810:
  4851  00158A                     
  4852                           ;io.c: 20:         pin -=8;
  4853  00158A  0EF8               	movlw	248
  4854  00158C  2631               	addwf	digitalWrite@pin^0,f,c
  4855  00158E  0EFF               	movlw	255
  4856  001590  2232               	addwfc	(digitalWrite@pin+1)^0,f,c
  4857                           
  4858                           ;io.c: 21:         if (value){ ((PORTB) |= (1<<(pin)));}
  4859  001592  5033               	movf	digitalWrite@value^0,w,c
  4860  001594  1034               	iorwf	(digitalWrite@value+1)^0,w,c
  4861  001596  B4D8               	btfsc	status,2,c
  4862  001598  EFD0  F00A         	goto	u1821
  4863  00159C  EFD2  F00A         	goto	u1820
  4864  0015A0                     u1821:
  4865  0015A0  EFE2  F00A         	goto	l2303
  4866  0015A4                     u1820:
  4867  0015A4  C031  F035         	movff	digitalWrite@pin,??_digitalWrite
  4868  0015A8  0E01               	movlw	1
  4869  0015AA  6E36               	movwf	(??_digitalWrite+1)^0,c
  4870  0015AC  2A35               	incf	??_digitalWrite^0,f,c
  4871  0015AE  EFDB  F00A         	goto	u1834
  4872  0015B2                     u1835:
  4873  0015B2  90D8               	bcf	status,0,c
  4874  0015B4  3636               	rlcf	(??_digitalWrite+1)^0,f,c
  4875  0015B6                     u1834:
  4876  0015B6  2E35               	decfsz	??_digitalWrite^0,f,c
  4877  0015B8  EFD9  F00A         	goto	u1835
  4878  0015BC  5036               	movf	(??_digitalWrite+1)^0,w,c
  4879  0015BE  1281               	iorwf	129,f,c	;volatile
  4880  0015C0  EFA5  F00B         	goto	l42
  4881  0015C4                     l2303:
  4882  0015C4  C031  F035         	movff	digitalWrite@pin,??_digitalWrite
  4883  0015C8  0E01               	movlw	1
  4884  0015CA  6E36               	movwf	(??_digitalWrite+1)^0,c
  4885  0015CC  2A35               	incf	??_digitalWrite^0,f,c
  4886  0015CE  EFEB  F00A         	goto	u1844
  4887  0015D2                     u1845:
  4888  0015D2  90D8               	bcf	status,0,c
  4889  0015D4  3636               	rlcf	(??_digitalWrite+1)^0,f,c
  4890  0015D6                     u1844:
  4891  0015D6  2E35               	decfsz	??_digitalWrite^0,f,c
  4892  0015D8  EFE9  F00A         	goto	u1845
  4893  0015DC  5036               	movf	(??_digitalWrite+1)^0,w,c
  4894  0015DE  0AFF               	xorlw	255
  4895  0015E0  1681               	andwf	129,f,c	;volatile
  4896  0015E2  EFA5  F00B         	goto	l42
  4897  0015E6                     l2305:
  4898  0015E6  BE32               	btfsc	(digitalWrite@pin+1)^0,7,c
  4899  0015E8  EF01  F00B         	goto	u1850
  4900  0015EC  5032               	movf	(digitalWrite@pin+1)^0,w,c
  4901  0015EE  E107               	bnz	u1851
  4902  0015F0  0E18               	movlw	24
  4903  0015F2  5C31               	subwf	digitalWrite@pin^0,w,c
  4904  0015F4  B0D8               	btfsc	status,0,c
  4905  0015F6  EFFF  F00A         	goto	u1851
  4906  0015FA  EF01  F00B         	goto	u1850
  4907  0015FE                     u1851:
  4908  0015FE  EF2F  F00B         	goto	l2313
  4909  001602                     u1850:
  4910  001602                     
  4911                           ;io.c: 24:         pin -=16;
  4912  001602  0EF0               	movlw	240
  4913  001604  2631               	addwf	digitalWrite@pin^0,f,c
  4914  001606  0EFF               	movlw	255
  4915  001608  2232               	addwfc	(digitalWrite@pin+1)^0,f,c
  4916                           
  4917                           ;io.c: 25:         if (value){ ((PORTC) |= (1<<(pin)));}
  4918  00160A  5033               	movf	digitalWrite@value^0,w,c
  4919  00160C  1034               	iorwf	(digitalWrite@value+1)^0,w,c
  4920  00160E  B4D8               	btfsc	status,2,c
  4921  001610  EF0C  F00B         	goto	u1861
  4922  001614  EF0E  F00B         	goto	u1860
  4923  001618                     u1861:
  4924  001618  EF1E  F00B         	goto	l2311
  4925  00161C                     u1860:
  4926  00161C  C031  F035         	movff	digitalWrite@pin,??_digitalWrite
  4927  001620  0E01               	movlw	1
  4928  001622  6E36               	movwf	(??_digitalWrite+1)^0,c
  4929  001624  2A35               	incf	??_digitalWrite^0,f,c
  4930  001626  EF17  F00B         	goto	u1874
  4931  00162A                     u1875:
  4932  00162A  90D8               	bcf	status,0,c
  4933  00162C  3636               	rlcf	(??_digitalWrite+1)^0,f,c
  4934  00162E                     u1874:
  4935  00162E  2E35               	decfsz	??_digitalWrite^0,f,c
  4936  001630  EF15  F00B         	goto	u1875
  4937  001634  5036               	movf	(??_digitalWrite+1)^0,w,c
  4938  001636  1282               	iorwf	130,f,c	;volatile
  4939  001638  EFA5  F00B         	goto	l42
  4940  00163C                     l2311:
  4941  00163C  C031  F035         	movff	digitalWrite@pin,??_digitalWrite
  4942  001640  0E01               	movlw	1
  4943  001642  6E36               	movwf	(??_digitalWrite+1)^0,c
  4944  001644  2A35               	incf	??_digitalWrite^0,f,c
  4945  001646  EF27  F00B         	goto	u1884
  4946  00164A                     u1885:
  4947  00164A  90D8               	bcf	status,0,c
  4948  00164C  3636               	rlcf	(??_digitalWrite+1)^0,f,c
  4949  00164E                     u1884:
  4950  00164E  2E35               	decfsz	??_digitalWrite^0,f,c
  4951  001650  EF25  F00B         	goto	u1885
  4952  001654  5036               	movf	(??_digitalWrite+1)^0,w,c
  4953  001656  0AFF               	xorlw	255
  4954  001658  1682               	andwf	130,f,c	;volatile
  4955  00165A  EFA5  F00B         	goto	l42
  4956  00165E                     l2313:
  4957  00165E  BE32               	btfsc	(digitalWrite@pin+1)^0,7,c
  4958  001660  EF3D  F00B         	goto	u1890
  4959  001664  5032               	movf	(digitalWrite@pin+1)^0,w,c
  4960  001666  E107               	bnz	u1891
  4961  001668  0E20               	movlw	32
  4962  00166A  5C31               	subwf	digitalWrite@pin^0,w,c
  4963  00166C  B0D8               	btfsc	status,0,c
  4964  00166E  EF3B  F00B         	goto	u1891
  4965  001672  EF3D  F00B         	goto	u1890
  4966  001676                     u1891:
  4967  001676  EF6B  F00B         	goto	l2321
  4968  00167A                     u1890:
  4969  00167A                     
  4970                           ;io.c: 28:         pin -=24;
  4971  00167A  0EE8               	movlw	232
  4972  00167C  2631               	addwf	digitalWrite@pin^0,f,c
  4973  00167E  0EFF               	movlw	255
  4974  001680  2232               	addwfc	(digitalWrite@pin+1)^0,f,c
  4975                           
  4976                           ;io.c: 29:         if (value){ ((PORTD) |= (1<<(pin)));}
  4977  001682  5033               	movf	digitalWrite@value^0,w,c
  4978  001684  1034               	iorwf	(digitalWrite@value+1)^0,w,c
  4979  001686  B4D8               	btfsc	status,2,c
  4980  001688  EF48  F00B         	goto	u1901
  4981  00168C  EF4A  F00B         	goto	u1900
  4982  001690                     u1901:
  4983  001690  EF5A  F00B         	goto	l2319
  4984  001694                     u1900:
  4985  001694  C031  F035         	movff	digitalWrite@pin,??_digitalWrite
  4986  001698  0E01               	movlw	1
  4987  00169A  6E36               	movwf	(??_digitalWrite+1)^0,c
  4988  00169C  2A35               	incf	??_digitalWrite^0,f,c
  4989  00169E  EF53  F00B         	goto	u1914
  4990  0016A2                     u1915:
  4991  0016A2  90D8               	bcf	status,0,c
  4992  0016A4  3636               	rlcf	(??_digitalWrite+1)^0,f,c
  4993  0016A6                     u1914:
  4994  0016A6  2E35               	decfsz	??_digitalWrite^0,f,c
  4995  0016A8  EF51  F00B         	goto	u1915
  4996  0016AC  5036               	movf	(??_digitalWrite+1)^0,w,c
  4997  0016AE  1283               	iorwf	131,f,c	;volatile
  4998  0016B0  EFA5  F00B         	goto	l42
  4999  0016B4                     l2319:
  5000  0016B4  C031  F035         	movff	digitalWrite@pin,??_digitalWrite
  5001  0016B8  0E01               	movlw	1
  5002  0016BA  6E36               	movwf	(??_digitalWrite+1)^0,c
  5003  0016BC  2A35               	incf	??_digitalWrite^0,f,c
  5004  0016BE  EF63  F00B         	goto	u1924
  5005  0016C2                     u1925:
  5006  0016C2  90D8               	bcf	status,0,c
  5007  0016C4  3636               	rlcf	(??_digitalWrite+1)^0,f,c
  5008  0016C6                     u1924:
  5009  0016C6  2E35               	decfsz	??_digitalWrite^0,f,c
  5010  0016C8  EF61  F00B         	goto	u1925
  5011  0016CC  5036               	movf	(??_digitalWrite+1)^0,w,c
  5012  0016CE  0AFF               	xorlw	255
  5013  0016D0  1683               	andwf	131,f,c	;volatile
  5014  0016D2  EFA5  F00B         	goto	l42
  5015  0016D6                     l2321:
  5016  0016D6  BE32               	btfsc	(digitalWrite@pin+1)^0,7,c
  5017  0016D8  EF79  F00B         	goto	u1930
  5018  0016DC  5032               	movf	(digitalWrite@pin+1)^0,w,c
  5019  0016DE  E107               	bnz	u1931
  5020  0016E0  0E28               	movlw	40
  5021  0016E2  5C31               	subwf	digitalWrite@pin^0,w,c
  5022  0016E4  B0D8               	btfsc	status,0,c
  5023  0016E6  EF77  F00B         	goto	u1931
  5024  0016EA  EF79  F00B         	goto	u1930
  5025  0016EE                     u1931:
  5026  0016EE  EFA5  F00B         	goto	l42
  5027  0016F2                     u1930:
  5028  0016F2                     
  5029                           ;io.c: 32:         pin -=32;
  5030  0016F2  0EE0               	movlw	224
  5031  0016F4  2631               	addwf	digitalWrite@pin^0,f,c
  5032  0016F6  0EFF               	movlw	255
  5033  0016F8  2232               	addwfc	(digitalWrite@pin+1)^0,f,c
  5034                           
  5035                           ;io.c: 33:         if (value){ ((PORTE) |= (1<<(pin)));}
  5036  0016FA  5033               	movf	digitalWrite@value^0,w,c
  5037  0016FC  1034               	iorwf	(digitalWrite@value+1)^0,w,c
  5038  0016FE  B4D8               	btfsc	status,2,c
  5039  001700  EF84  F00B         	goto	u1941
  5040  001704  EF86  F00B         	goto	u1940
  5041  001708                     u1941:
  5042  001708  EF96  F00B         	goto	l2327
  5043  00170C                     u1940:
  5044  00170C  C031  F035         	movff	digitalWrite@pin,??_digitalWrite
  5045  001710  0E01               	movlw	1
  5046  001712  6E36               	movwf	(??_digitalWrite+1)^0,c
  5047  001714  2A35               	incf	??_digitalWrite^0,f,c
  5048  001716  EF8F  F00B         	goto	u1954
  5049  00171A                     u1955:
  5050  00171A  90D8               	bcf	status,0,c
  5051  00171C  3636               	rlcf	(??_digitalWrite+1)^0,f,c
  5052  00171E                     u1954:
  5053  00171E  2E35               	decfsz	??_digitalWrite^0,f,c
  5054  001720  EF8D  F00B         	goto	u1955
  5055  001724  5036               	movf	(??_digitalWrite+1)^0,w,c
  5056  001726  1284               	iorwf	132,f,c	;volatile
  5057  001728  EFA5  F00B         	goto	l42
  5058  00172C                     l2327:
  5059  00172C  C031  F035         	movff	digitalWrite@pin,??_digitalWrite
  5060  001730  0E01               	movlw	1
  5061  001732  6E36               	movwf	(??_digitalWrite+1)^0,c
  5062  001734  2A35               	incf	??_digitalWrite^0,f,c
  5063  001736  EF9F  F00B         	goto	u1964
  5064  00173A                     u1965:
  5065  00173A  90D8               	bcf	status,0,c
  5066  00173C  3636               	rlcf	(??_digitalWrite+1)^0,f,c
  5067  00173E                     u1964:
  5068  00173E  2E35               	decfsz	??_digitalWrite^0,f,c
  5069  001740  EF9D  F00B         	goto	u1965
  5070  001744  5036               	movf	(??_digitalWrite+1)^0,w,c
  5071  001746  0AFF               	xorlw	255
  5072  001748  1684               	andwf	132,f,c	;volatile
  5073  00174A                     l42:
  5074  00174A  0012               	return		;funcret
  5075  00174C                     __end_of_digitalWrite:
  5076                           	callstack 0
  5077                           
  5078 ;; *************** function _Delay40us *****************
  5079 ;; Defined at:
  5080 ;;		line 31 in file "lcd.c"
  5081 ;; Parameters:    Size  Location     Type
  5082 ;;		None
  5083 ;; Auto vars:     Size  Location     Type
  5084 ;;  i               1    0[COMRAM] unsigned char 
  5085 ;; Return value:  Size  Location     Type
  5086 ;;                  1    wreg      void 
  5087 ;; Registers used:
  5088 ;;		wreg, status,2, status,0
  5089 ;; Tracked objects:
  5090 ;;		On entry : 0/0
  5091 ;;		On exit  : 0/0
  5092 ;;		Unchanged: 0/0
  5093 ;; Data sizes:     COMRAM   BANK0   BANK1   BANK2   BANK3   BANK4   BANK5
  5094 ;;      Params:         0       0       0       0       0       0       0
  5095 ;;      Locals:         1       0       0       0       0       0       0
  5096 ;;      Temps:          0       0       0       0       0       0       0
  5097 ;;      Totals:         1       0       0       0       0       0       0
  5098 ;;Total ram usage:        1 bytes
  5099 ;; Hardware stack levels used: 1
  5100 ;; This function calls:
  5101 ;;		Nothing
  5102 ;; This function is called by:
  5103 ;;		_Delay2ms
  5104 ;;		_lcdCommand
  5105 ;;		_lcdData
  5106 ;; This function uses a non-reentrant model
  5107 ;;
  5108                           
  5109                           	psect	text26
  5110  002592                     __ptext26:
  5111                           	callstack 0
  5112  002592                     _Delay40us:
  5113                           	callstack 27
  5114  002592                     
  5115                           ;lcd.c: 33:  unsigned char i;;lcd.c: 34:  for(i=0; i < 25; i++);
  5116  002592  0E00               	movlw	0
  5117  002594  6E31               	movwf	Delay40us@i^0,c
  5118  002596                     l2285:
  5119  002596  2A31               	incf	Delay40us@i^0,f,c
  5120  002598  0E18               	movlw	24
  5121  00259A  6431               	cpfsgt	Delay40us@i^0,c
  5122  00259C  EFD2  F012         	goto	u1761
  5123  0025A0  EFD4  F012         	goto	u1760
  5124  0025A4                     u1761:
  5125  0025A4  EFCB  F012         	goto	l2285
  5126  0025A8                     u1760:
  5127  0025A8  0012               	return		;funcret
  5128  0025AA                     __end_of_Delay40us:
  5129                           	callstack 0
  5130                           
  5131 ;; *************** function _adc_amostra *****************
  5132 ;; Defined at:
  5133 ;;		line 44 in file "adc.c"
  5134 ;; Parameters:    Size  Location     Type
  5135 ;;  canal           1    wreg     unsigned char 
  5136 ;; Auto vars:     Size  Location     Type
  5137 ;;  canal           1    6[COMRAM] unsigned char 
  5138 ;; Return value:  Size  Location     Type
  5139 ;;                  2    0[COMRAM] unsigned int 
  5140 ;; Registers used:
  5141 ;;		wreg, status,2, status,0
  5142 ;; Tracked objects:
  5143 ;;		On entry : 0/0
  5144 ;;		On exit  : 0/0
  5145 ;;		Unchanged: 0/0
  5146 ;; Data sizes:     COMRAM   BANK0   BANK1   BANK2   BANK3   BANK4   BANK5
  5147 ;;      Params:         2       0       0       0       0       0       0
  5148 ;;      Locals:         1       0       0       0       0       0       0
  5149 ;;      Temps:          4       0       0       0       0       0       0
  5150 ;;      Totals:         7       0       0       0       0       0       0
  5151 ;;Total ram usage:        7 bytes
  5152 ;; Hardware stack levels used: 1
  5153 ;; This function calls:
  5154 ;;		Nothing
  5155 ;; This function is called by:
  5156 ;;		_main
  5157 ;; This function uses a non-reentrant model
  5158 ;;
  5159                           
  5160                           	psect	text27
  5161  001E8C                     __ptext27:
  5162                           	callstack 0
  5163  001E8C                     _adc_amostra:
  5164                           	callstack 30
  5165                           
  5166                           ;incstack = 0
  5167                           ;adc_amostra@canal stored from wreg
  5168  001E8C  6E37               	movwf	adc_amostra@canal^0,c
  5169  001E8E                     
  5170                           ;adc.c: 44: unsigned int adc_amostra(unsigned char canal);adc.c: 45: {;adc.c: 62:      s
      +                          witch(canal)
  5171  001E8E  EF55  F00F         	goto	l2765
  5172  001E92                     l2757:
  5173                           
  5174                           ;adc.c: 65:         ADCON0=0x01;
  5175  001E92  0E01               	movlw	1
  5176  001E94  6EC2               	movwf	194,c	;volatile
  5177                           
  5178                           ;adc.c: 66:         break;
  5179  001E96  EF6E  F00F         	goto	l367
  5180  001E9A                     l2759:
  5181                           
  5182                           ;adc.c: 68:         ADCON0=0x09;
  5183  001E9A  0E09               	movlw	9
  5184  001E9C  6EC2               	movwf	194,c	;volatile
  5185                           
  5186                           ;adc.c: 69:         break;
  5187  001E9E  EF6E  F00F         	goto	l367
  5188  001EA2                     l2761:
  5189                           
  5190                           ;adc.c: 71:         ADCON0=0x11;
  5191  001EA2  0E11               	movlw	17
  5192  001EA4  6EC2               	movwf	194,c	;volatile
  5193                           
  5194                           ;adc.c: 72:         break;
  5195  001EA6  EF6E  F00F         	goto	l367
  5196  001EAA                     l2765:
  5197  001EAA  5037               	movf	adc_amostra@canal^0,w,c
  5198  001EAC  6E33               	movwf	??_adc_amostra^0,c
  5199  001EAE  6A34               	clrf	(??_adc_amostra+1)^0,c
  5200                           
  5201                           ; Switch on 2 bytes has been partitioned into a top level switch of size 1, and 1 sub-sw
      +                          itches
  5202                           ; Switch size 1, requested type "simple"
  5203                           ; Number of cases is 1, Range of values is 0 to 0
  5204                           ; switch strategies available:
  5205                           ; Name         Instructions Cycles
  5206                           ; simple_byte            4     3 (average)
  5207                           ;	Chosen strategy is simple_byte
  5208  001EB0  5034               	movf	(??_adc_amostra+1)^0,w,c
  5209  001EB2  0A00               	xorlw	0	; case 0
  5210  001EB4  B4D8               	btfsc	status,2,c
  5211  001EB6  EF5F  F00F         	goto	l3449
  5212  001EBA  EF6E  F00F         	goto	l367
  5213  001EBE                     l3449:
  5214                           
  5215                           ; Switch size 1, requested type "simple"
  5216                           ; Number of cases is 3, Range of values is 0 to 2
  5217                           ; switch strategies available:
  5218                           ; Name         Instructions Cycles
  5219                           ; simple_byte           10     6 (average)
  5220                           ;	Chosen strategy is simple_byte
  5221  001EBE  5033               	movf	??_adc_amostra^0,w,c
  5222  001EC0  0A00               	xorlw	0	; case 0
  5223  001EC2  B4D8               	btfsc	status,2,c
  5224  001EC4  EF49  F00F         	goto	l2757
  5225  001EC8  0A01               	xorlw	1	; case 1
  5226  001ECA  B4D8               	btfsc	status,2,c
  5227  001ECC  EF4D  F00F         	goto	l2759
  5228  001ED0  0A03               	xorlw	3	; case 2
  5229  001ED2  B4D8               	btfsc	status,2,c
  5230  001ED4  EF51  F00F         	goto	l2761
  5231  001ED8  EF6E  F00F         	goto	l367
  5232  001EDC                     l367:
  5233                           
  5234                           ;adc.c: 77:     ADCON0bits.GO=1;
  5235  001EDC  82C2               	bsf	194,1,c	;volatile
  5236  001EDE                     l370:
  5237  001EDE  B2C2               	btfsc	194,1,c	;volatile
  5238  001EE0  EF74  F00F         	goto	u2601
  5239  001EE4  EF76  F00F         	goto	u2600
  5240  001EE8                     u2601:
  5241  001EE8  EF6F  F00F         	goto	l370
  5242  001EEC                     u2600:
  5243  001EEC                     
  5244                           ;adc.c: 80:    return ((((unsigned int)ADRESH)<<2)|(ADRESL>>6));
  5245  001EEC  CFC3 F033          	movff	4035,??_adc_amostra	;volatile
  5246  001EF0  0E06               	movlw	6
  5247  001EF2  6E34               	movwf	(??_adc_amostra+1)^0,c
  5248  001EF4                     u2615:
  5249  001EF4  90D8               	bcf	status,0,c
  5250  001EF6  3233               	rrcf	??_adc_amostra^0,f,c
  5251  001EF8  2E34               	decfsz	(??_adc_amostra+1)^0,f,c
  5252  001EFA  EF7A  F00F         	goto	u2615
  5253  001EFE  5033               	movf	??_adc_amostra^0,w,c
  5254  001F00  CFC4 F035          	movff	4036,??_adc_amostra+2	;volatile
  5255  001F04  6A36               	clrf	(??_adc_amostra+3)^0,c
  5256  001F06  90D8               	bcf	status,0,c
  5257  001F08  3635               	rlcf	(??_adc_amostra+2)^0,f,c
  5258  001F0A  3636               	rlcf	(??_adc_amostra+3)^0,f,c
  5259  001F0C  90D8               	bcf	status,0,c
  5260  001F0E  3635               	rlcf	(??_adc_amostra+2)^0,f,c
  5261  001F10  3636               	rlcf	(??_adc_amostra+3)^0,f,c
  5262  001F12  1035               	iorwf	(??_adc_amostra+2)^0,w,c
  5263  001F14  6E31               	movwf	?_adc_amostra^0,c
  5264  001F16  5036               	movf	(??_adc_amostra+3)^0,w,c
  5265  001F18  6E32               	movwf	(?_adc_amostra+1)^0,c
  5266  001F1A  0012               	return		;funcret
  5267  001F1C                     __end_of_adc_amostra:
  5268                           	callstack 0
  5269                           
  5270 ;; *************** function ___flge *****************
  5271 ;; Defined at:
  5272 ;;		line 4 in file "C:\Program Files\Microchip\xc8\v2.32\pic\sources\c99\common\flge.c"
  5273 ;; Parameters:    Size  Location     Type
  5274 ;;  ff1             4    0[COMRAM] unsigned int 
  5275 ;;  ff2             4    4[COMRAM] unsigned int 
  5276 ;; Auto vars:     Size  Location     Type
  5277 ;;		None
  5278 ;; Return value:  Size  Location     Type
  5279 ;;		None               void
  5280 ;; Registers used:
  5281 ;;		wreg, status,2, status,0
  5282 ;; Tracked objects:
  5283 ;;		On entry : 0/0
  5284 ;;		On exit  : 0/0
  5285 ;;		Unchanged: 0/0
  5286 ;; Data sizes:     COMRAM   BANK0   BANK1   BANK2   BANK3   BANK4   BANK5
  5287 ;;      Params:         8       0       0       0       0       0       0
  5288 ;;      Locals:         0       0       0       0       0       0       0
  5289 ;;      Temps:          4       0       0       0       0       0       0
  5290 ;;      Totals:        12       0       0       0       0       0       0
  5291 ;;Total ram usage:       12 bytes
  5292 ;; Hardware stack levels used: 1
  5293 ;; This function calls:
  5294 ;;		Nothing
  5295 ;; This function is called by:
  5296 ;;		_main
  5297 ;; This function uses a non-reentrant model
  5298 ;;
  5299                           
  5300                           	psect	text28
  5301  001D88                     __ptext28:
  5302                           	callstack 0
  5303  001D88                     ___flge:
  5304                           	callstack 30
  5305  001D88  0E00               	movlw	0
  5306  001D8A  1431               	andwf	___flge@ff1^0,w,c
  5307  001D8C  6E39               	movwf	??___flge^0,c
  5308  001D8E  0E00               	movlw	0
  5309  001D90  1432               	andwf	(___flge@ff1+1)^0,w,c
  5310  001D92  6E3A               	movwf	(??___flge+1)^0,c
  5311  001D94  0E80               	movlw	128
  5312  001D96  1433               	andwf	(___flge@ff1+2)^0,w,c
  5313  001D98  6E3B               	movwf	(??___flge+2)^0,c
  5314  001D9A  0E7F               	movlw	127
  5315  001D9C  1434               	andwf	(___flge@ff1+3)^0,w,c
  5316  001D9E  6E3C               	movwf	(??___flge+3)^0,c
  5317  001DA0  5039               	movf	??___flge^0,w,c
  5318  001DA2  103A               	iorwf	(??___flge+1)^0,w,c
  5319  001DA4  103B               	iorwf	(??___flge+2)^0,w,c
  5320  001DA6  103C               	iorwf	(??___flge+3)^0,w,c
  5321  001DA8  A4D8               	btfss	status,2,c
  5322  001DAA  EFD9  F00E         	goto	u3161
  5323  001DAE  EFDB  F00E         	goto	u3160
  5324  001DB2                     u3161:
  5325  001DB2  EFE3  F00E         	goto	l3139
  5326  001DB6                     u3160:
  5327  001DB6  0E00               	movlw	0
  5328  001DB8  6E31               	movwf	___flge@ff1^0,c
  5329  001DBA  0E00               	movlw	0
  5330  001DBC  6E32               	movwf	(___flge@ff1+1)^0,c
  5331  001DBE  0E00               	movlw	0
  5332  001DC0  6E33               	movwf	(___flge@ff1+2)^0,c
  5333  001DC2  0E00               	movlw	0
  5334  001DC4  6E34               	movwf	(___flge@ff1+3)^0,c
  5335  001DC6                     l3139:
  5336  001DC6  0E00               	movlw	0
  5337  001DC8  1435               	andwf	___flge@ff2^0,w,c
  5338  001DCA  6E39               	movwf	??___flge^0,c
  5339  001DCC  0E00               	movlw	0
  5340  001DCE  1436               	andwf	(___flge@ff2+1)^0,w,c
  5341  001DD0  6E3A               	movwf	(??___flge+1)^0,c
  5342  001DD2  0E80               	movlw	128
  5343  001DD4  1437               	andwf	(___flge@ff2+2)^0,w,c
  5344  001DD6  6E3B               	movwf	(??___flge+2)^0,c
  5345  001DD8  0E7F               	movlw	127
  5346  001DDA  1438               	andwf	(___flge@ff2+3)^0,w,c
  5347  001DDC  6E3C               	movwf	(??___flge+3)^0,c
  5348  001DDE  5039               	movf	??___flge^0,w,c
  5349  001DE0  103A               	iorwf	(??___flge+1)^0,w,c
  5350  001DE2  103B               	iorwf	(??___flge+2)^0,w,c
  5351  001DE4  103C               	iorwf	(??___flge+3)^0,w,c
  5352  001DE6  A4D8               	btfss	status,2,c
  5353  001DE8  EFF8  F00E         	goto	u3171
  5354  001DEC  EFFA  F00E         	goto	u3170
  5355  001DF0                     u3171:
  5356  001DF0  EF02  F00F         	goto	l3143
  5357  001DF4                     u3170:
  5358  001DF4  0E00               	movlw	0
  5359  001DF6  6E35               	movwf	___flge@ff2^0,c
  5360  001DF8  0E00               	movlw	0
  5361  001DFA  6E36               	movwf	(___flge@ff2+1)^0,c
  5362  001DFC  0E00               	movlw	0
  5363  001DFE  6E37               	movwf	(___flge@ff2+2)^0,c
  5364  001E00  0E00               	movlw	0
  5365  001E02  6E38               	movwf	(___flge@ff2+3)^0,c
  5366  001E04                     l3143:
  5367  001E04  AE34               	btfss	(___flge@ff1+3)^0,7,c
  5368  001E06  EF07  F00F         	goto	u3181
  5369  001E0A  EF09  F00F         	goto	u3180
  5370  001E0E                     u3181:
  5371  001E0E  EF12  F00F         	goto	l3147
  5372  001E12                     u3180:
  5373  001E12  6C31               	negf	___flge@ff1^0,c
  5374  001E14  1E32               	comf	(___flge@ff1+1)^0,f,c
  5375  001E16  B0D8               	btfsc	status,0,c
  5376  001E18  2A32               	incf	(___flge@ff1+1)^0,f,c
  5377  001E1A  1E33               	comf	(___flge@ff1+2)^0,f,c
  5378  001E1C  B0D8               	btfsc	status,0,c
  5379  001E1E  2A33               	incf	(___flge@ff1+2)^0,f,c
  5380  001E20  0E80               	movlw	128
  5381  001E22  5634               	subfwb	(___flge@ff1+3)^0,f,c
  5382  001E24                     l3147:
  5383  001E24  AE38               	btfss	(___flge@ff2+3)^0,7,c
  5384  001E26  EF17  F00F         	goto	u3191
  5385  001E2A  EF19  F00F         	goto	u3190
  5386  001E2E                     u3191:
  5387  001E2E  EF22  F00F         	goto	l663
  5388  001E32                     u3190:
  5389  001E32  6C35               	negf	___flge@ff2^0,c
  5390  001E34  1E36               	comf	(___flge@ff2+1)^0,f,c
  5391  001E36  B0D8               	btfsc	status,0,c
  5392  001E38  2A36               	incf	(___flge@ff2+1)^0,f,c
  5393  001E3A  1E37               	comf	(___flge@ff2+2)^0,f,c
  5394  001E3C  B0D8               	btfsc	status,0,c
  5395  001E3E  2A37               	incf	(___flge@ff2+2)^0,f,c
  5396  001E40  0E80               	movlw	128
  5397  001E42  5638               	subfwb	(___flge@ff2+3)^0,f,c
  5398  001E44                     l663:
  5399  001E44  0E00               	movlw	0
  5400  001E46  1A31               	xorwf	___flge@ff1^0,f,c
  5401  001E48  0E00               	movlw	0
  5402  001E4A  1A32               	xorwf	(___flge@ff1+1)^0,f,c
  5403  001E4C  0E00               	movlw	0
  5404  001E4E  1A33               	xorwf	(___flge@ff1+2)^0,f,c
  5405  001E50  0E80               	movlw	128
  5406  001E52  1A34               	xorwf	(___flge@ff1+3)^0,f,c
  5407  001E54  0E00               	movlw	0
  5408  001E56  1A35               	xorwf	___flge@ff2^0,f,c
  5409  001E58  0E00               	movlw	0
  5410  001E5A  1A36               	xorwf	(___flge@ff2+1)^0,f,c
  5411  001E5C  0E00               	movlw	0
  5412  001E5E  1A37               	xorwf	(___flge@ff2+2)^0,f,c
  5413  001E60  0E80               	movlw	128
  5414  001E62  1A38               	xorwf	(___flge@ff2+3)^0,f,c
  5415  001E64  5035               	movf	___flge@ff2^0,w,c
  5416  001E66  5C31               	subwf	___flge@ff1^0,w,c
  5417  001E68  5036               	movf	(___flge@ff2+1)^0,w,c
  5418  001E6A  5832               	subwfb	(___flge@ff1+1)^0,w,c
  5419  001E6C  5037               	movf	(___flge@ff2+2)^0,w,c
  5420  001E6E  5833               	subwfb	(___flge@ff1+2)^0,w,c
  5421  001E70  5038               	movf	(___flge@ff2+3)^0,w,c
  5422  001E72  5834               	subwfb	(___flge@ff1+3)^0,w,c
  5423  001E74  B0D8               	btfsc	status,0,c
  5424  001E76  EF3F  F00F         	goto	u3201
  5425  001E7A  EF41  F00F         	goto	u3200
  5426  001E7E                     u3201:
  5427  001E7E  EF44  F00F         	goto	l3153
  5428  001E82                     u3200:
  5429  001E82  90D8               	bcf	status,0,c
  5430  001E84  EF45  F00F         	goto	l668
  5431  001E88                     l3153:
  5432  001E88  80D8               	bsf	status,0,c
  5433  001E8A                     l668:
  5434  001E8A  0012               	return		;funcret
  5435  001E8C                     __end_of___flge:
  5436                           	callstack 0
  5437                           
  5438 ;; *************** function ___fladd *****************
  5439 ;; Defined at:
  5440 ;;		line 10 in file "C:\Program Files\Microchip\xc8\v2.32\pic\sources\c99\common\sprcadd.c"
  5441 ;; Parameters:    Size  Location     Type
  5442 ;;  b               4    0[COMRAM] unsigned int 
  5443 ;;  a               4    4[COMRAM] unsigned int 
  5444 ;; Auto vars:     Size  Location     Type
  5445 ;;  grs             1   15[COMRAM] unsigned char 
  5446 ;;  bexp            1   14[COMRAM] unsigned char 
  5447 ;;  aexp            1   13[COMRAM] unsigned char 
  5448 ;;  signs           1   12[COMRAM] unsigned char 
  5449 ;; Return value:  Size  Location     Type
  5450 ;;                  4    0[COMRAM] unsigned char 
  5451 ;; Registers used:
  5452 ;;		wreg, status,2, status,0
  5453 ;; Tracked objects:
  5454 ;;		On entry : 0/0
  5455 ;;		On exit  : 0/0
  5456 ;;		Unchanged: 0/0
  5457 ;; Data sizes:     COMRAM   BANK0   BANK1   BANK2   BANK3   BANK4   BANK5
  5458 ;;      Params:         8       0       0       0       0       0       0
  5459 ;;      Locals:         4       0       0       0       0       0       0
  5460 ;;      Temps:          4       0       0       0       0       0       0
  5461 ;;      Totals:        16       0       0       0       0       0       0
  5462 ;;Total ram usage:       16 bytes
  5463 ;; Hardware stack levels used: 1
  5464 ;; This function calls:
  5465 ;;		Nothing
  5466 ;; This function is called by:
  5467 ;;		_main
  5468 ;; This function uses a non-reentrant model
  5469 ;;
  5470                           
  5471                           	psect	text29
  5472  000DF0                     __ptext29:
  5473                           	callstack 0
  5474  000DF0                     ___fladd:
  5475                           	callstack 30
  5476  000DF0  5034               	movf	(___fladd@b+3)^0,w,c
  5477  000DF2  0B80               	andlw	128
  5478  000DF4  6E3D               	movwf	___fladd@signs^0,c
  5479  000DF6  5034               	movf	(___fladd@b+3)^0,w,c
  5480  000DF8  2434               	addwf	(___fladd@b+3)^0,w,c
  5481  000DFA  6E3F               	movwf	___fladd@bexp^0,c
  5482  000DFC  AE33               	btfss	(___fladd@b+2)^0,7,c
  5483  000DFE  EF03  F007         	goto	u2771
  5484  000E02  EF05  F007         	goto	u2770
  5485  000E06                     u2771:
  5486  000E06  EF06  F007         	goto	l2939
  5487  000E0A                     u2770:
  5488  000E0A  803F               	bsf	___fladd@bexp^0,0,c
  5489  000E0C                     l2939:
  5490  000E0C  503F               	movf	___fladd@bexp^0,w,c
  5491  000E0E  B4D8               	btfsc	status,2,c
  5492  000E10  EF0C  F007         	goto	u2781
  5493  000E14  EF0E  F007         	goto	u2780
  5494  000E18                     u2781:
  5495  000E18  EF23  F007         	goto	l2949
  5496  000E1C                     u2780:
  5497  000E1C  283F               	incf	___fladd@bexp^0,w,c
  5498  000E1E  A4D8               	btfss	status,2,c
  5499  000E20  EF14  F007         	goto	u2791
  5500  000E24  EF16  F007         	goto	u2790
  5501  000E28                     u2791:
  5502  000E28  EF1E  F007         	goto	l2945
  5503  000E2C                     u2790:
  5504  000E2C  0E00               	movlw	0
  5505  000E2E  6E31               	movwf	___fladd@b^0,c
  5506  000E30  0E00               	movlw	0
  5507  000E32  6E32               	movwf	(___fladd@b+1)^0,c
  5508  000E34  0E00               	movlw	0
  5509  000E36  6E33               	movwf	(___fladd@b+2)^0,c
  5510  000E38  0E00               	movlw	0
  5511  000E3A  6E34               	movwf	(___fladd@b+3)^0,c
  5512  000E3C                     l2945:
  5513  000E3C  8E33               	bsf	(___fladd@b+2)^0,7,c
  5514  000E3E  0E00               	movlw	0
  5515  000E40  6E34               	movwf	(___fladd@b+3)^0,c
  5516  000E42  EF2B  F007         	goto	l2951
  5517  000E46                     l2949:
  5518  000E46  0E00               	movlw	0
  5519  000E48  6E31               	movwf	___fladd@b^0,c
  5520  000E4A  0E00               	movlw	0
  5521  000E4C  6E32               	movwf	(___fladd@b+1)^0,c
  5522  000E4E  0E00               	movlw	0
  5523  000E50  6E33               	movwf	(___fladd@b+2)^0,c
  5524  000E52  0E00               	movlw	0
  5525  000E54  6E34               	movwf	(___fladd@b+3)^0,c
  5526  000E56                     l2951:
  5527  000E56  5038               	movf	(___fladd@a+3)^0,w,c
  5528  000E58  0B80               	andlw	128
  5529  000E5A  6E3E               	movwf	___fladd@aexp^0,c
  5530  000E5C  503D               	movf	___fladd@signs^0,w,c
  5531  000E5E  183E               	xorwf	___fladd@aexp^0,w,c
  5532  000E60  B4D8               	btfsc	status,2,c
  5533  000E62  EF35  F007         	goto	u2801
  5534  000E66  EF37  F007         	goto	u2800
  5535  000E6A                     u2801:
  5536  000E6A  EF38  F007         	goto	l2957
  5537  000E6E                     u2800:
  5538  000E6E  8C3D               	bsf	___fladd@signs^0,6,c
  5539  000E70                     l2957:
  5540  000E70  5038               	movf	(___fladd@a+3)^0,w,c
  5541  000E72  2438               	addwf	(___fladd@a+3)^0,w,c
  5542  000E74  6E3E               	movwf	___fladd@aexp^0,c
  5543  000E76  AE37               	btfss	(___fladd@a+2)^0,7,c
  5544  000E78  EF40  F007         	goto	u2811
  5545  000E7C  EF42  F007         	goto	u2810
  5546  000E80                     u2811:
  5547  000E80  EF43  F007         	goto	l2963
  5548  000E84                     u2810:
  5549  000E84  803E               	bsf	___fladd@aexp^0,0,c
  5550  000E86                     l2963:
  5551  000E86  503E               	movf	___fladd@aexp^0,w,c
  5552  000E88  B4D8               	btfsc	status,2,c
  5553  000E8A  EF49  F007         	goto	u2821
  5554  000E8E  EF4B  F007         	goto	u2820
  5555  000E92                     u2821:
  5556  000E92  EF60  F007         	goto	l2973
  5557  000E96                     u2820:
  5558  000E96  283E               	incf	___fladd@aexp^0,w,c
  5559  000E98  A4D8               	btfss	status,2,c
  5560  000E9A  EF51  F007         	goto	u2831
  5561  000E9E  EF53  F007         	goto	u2830
  5562  000EA2                     u2831:
  5563  000EA2  EF5B  F007         	goto	l2969
  5564  000EA6                     u2830:
  5565  000EA6  0E00               	movlw	0
  5566  000EA8  6E35               	movwf	___fladd@a^0,c
  5567  000EAA  0E00               	movlw	0
  5568  000EAC  6E36               	movwf	(___fladd@a+1)^0,c
  5569  000EAE  0E00               	movlw	0
  5570  000EB0  6E37               	movwf	(___fladd@a+2)^0,c
  5571  000EB2  0E00               	movlw	0
  5572  000EB4  6E38               	movwf	(___fladd@a+3)^0,c
  5573  000EB6                     l2969:
  5574  000EB6  8E37               	bsf	(___fladd@a+2)^0,7,c
  5575  000EB8  0E00               	movlw	0
  5576  000EBA  6E38               	movwf	(___fladd@a+3)^0,c
  5577  000EBC  EF68  F007         	goto	l2975
  5578  000EC0                     l2973:
  5579  000EC0  0E00               	movlw	0
  5580  000EC2  6E35               	movwf	___fladd@a^0,c
  5581  000EC4  0E00               	movlw	0
  5582  000EC6  6E36               	movwf	(___fladd@a+1)^0,c
  5583  000EC8  0E00               	movlw	0
  5584  000ECA  6E37               	movwf	(___fladd@a+2)^0,c
  5585  000ECC  0E00               	movlw	0
  5586  000ECE  6E38               	movwf	(___fladd@a+3)^0,c
  5587  000ED0                     l2975:
  5588  000ED0  503F               	movf	___fladd@bexp^0,w,c
  5589  000ED2  5C3E               	subwf	___fladd@aexp^0,w,c
  5590  000ED4  B0D8               	btfsc	status,0,c
  5591  000ED6  EF6F  F007         	goto	u2841
  5592  000EDA  EF71  F007         	goto	u2840
  5593  000EDE                     u2841:
  5594  000EDE  EF98  F007         	goto	l3011
  5595  000EE2                     u2840:
  5596  000EE2  AC3D               	btfss	___fladd@signs^0,6,c
  5597  000EE4  EF76  F007         	goto	u2851
  5598  000EE8  EF78  F007         	goto	u2850
  5599  000EEC                     u2851:
  5600  000EEC  EF7A  F007         	goto	l2981
  5601  000EF0                     u2850:
  5602  000EF0  0E80               	movlw	128
  5603  000EF2  1A3D               	xorwf	___fladd@signs^0,f,c
  5604  000EF4                     l2981:
  5605  000EF4  C03F  F040         	movff	___fladd@bexp,___fladd@grs
  5606  000EF8  C03E  F03F         	movff	___fladd@aexp,___fladd@bexp
  5607  000EFC  C040  F03E         	movff	___fladd@grs,___fladd@aexp
  5608  000F00  C031  F040         	movff	___fladd@b,___fladd@grs
  5609  000F04  C035  F031         	movff	___fladd@a,___fladd@b
  5610  000F08  C040  F035         	movff	___fladd@grs,___fladd@a
  5611  000F0C  C032  F040         	movff	___fladd@b+1,___fladd@grs
  5612  000F10  C036  F032         	movff	___fladd@a+1,___fladd@b+1
  5613  000F14  C040  F036         	movff	___fladd@grs,___fladd@a+1
  5614  000F18  C033  F040         	movff	___fladd@b+2,___fladd@grs
  5615  000F1C  C037  F033         	movff	___fladd@a+2,___fladd@b+2
  5616  000F20  C040  F037         	movff	___fladd@grs,___fladd@a+2
  5617  000F24  C034  F040         	movff	___fladd@b+3,___fladd@grs
  5618  000F28  C038  F034         	movff	___fladd@a+3,___fladd@b+3
  5619  000F2C  C040  F038         	movff	___fladd@grs,___fladd@a+3
  5620  000F30                     l3011:
  5621  000F30  0E00               	movlw	0
  5622  000F32  6E40               	movwf	___fladd@grs^0,c
  5623  000F34  503F               	movf	___fladd@bexp^0,w,c
  5624  000F36  C03E  F039         	movff	___fladd@aexp,??___fladd
  5625  000F3A  6A3A               	clrf	(??___fladd+1)^0,c
  5626  000F3C  5E39               	subwf	??___fladd^0,f,c
  5627  000F3E  0E00               	movlw	0
  5628  000F40  5A3A               	subwfb	(??___fladd+1)^0,f,c
  5629  000F42  BE3A               	btfsc	(??___fladd+1)^0,7,c
  5630  000F44  EFAD  F007         	goto	u2861
  5631  000F48  503A               	movf	(??___fladd+1)^0,w,c
  5632  000F4A  E109               	bnz	u2860
  5633  000F4C  0E1A               	movlw	26
  5634  000F4E  5C39               	subwf	??___fladd^0,w,c
  5635  000F50  A0D8               	btfss	status,0,c
  5636  000F52  EFAD  F007         	goto	u2861
  5637  000F56  EFAF  F007         	goto	u2860
  5638  000F5A                     u2861:
  5639  000F5A  EFE6  F007         	goto	l927
  5640  000F5E                     u2860:
  5641  000F5E  5031               	movf	___fladd@b^0,w,c
  5642  000F60  1032               	iorwf	(___fladd@b+1)^0,w,c
  5643  000F62  1033               	iorwf	(___fladd@b+2)^0,w,c
  5644  000F64  1034               	iorwf	(___fladd@b+3)^0,w,c
  5645  000F66  A4D8               	btfss	status,2,c
  5646  000F68  EFB8  F007         	goto	u2871
  5647  000F6C  EFBB  F007         	goto	u2870
  5648  000F70                     u2871:
  5649  000F70  0E01               	movlw	1
  5650  000F72  EFBC  F007         	goto	u2880
  5651  000F76                     u2870:
  5652  000F76  0E00               	movlw	0
  5653  000F78                     u2880:
  5654  000F78  6E40               	movwf	___fladd@grs^0,c
  5655  000F7A  0E00               	movlw	0
  5656  000F7C  6E31               	movwf	___fladd@b^0,c
  5657  000F7E  0E00               	movlw	0
  5658  000F80  6E32               	movwf	(___fladd@b+1)^0,c
  5659  000F82  0E00               	movlw	0
  5660  000F84  6E33               	movwf	(___fladd@b+2)^0,c
  5661  000F86  0E00               	movlw	0
  5662  000F88  6E34               	movwf	(___fladd@b+3)^0,c
  5663  000F8A  C03E  F03F         	movff	___fladd@aexp,___fladd@bexp
  5664  000F8E  EFEF  F007         	goto	l926
  5665  000F92                     l928:
  5666  000F92  A040               	btfss	___fladd@grs^0,0,c
  5667  000F94  EFCE  F007         	goto	u2891
  5668  000F98  EFD0  F007         	goto	u2890
  5669  000F9C                     u2891:
  5670  000F9C  EFD6  F007         	goto	l3023
  5671  000FA0                     u2890:
  5672  000FA0  90D8               	bcf	status,0,c
  5673  000FA2  3040               	rrcf	___fladd@grs^0,w,c
  5674  000FA4  0901               	iorlw	1
  5675  000FA6  6E40               	movwf	___fladd@grs^0,c
  5676  000FA8  EFD8  F007         	goto	l3025
  5677  000FAC                     l3023:
  5678  000FAC  90D8               	bcf	status,0,c
  5679  000FAE  3240               	rrcf	___fladd@grs^0,f,c
  5680  000FB0                     l3025:
  5681  000FB0  A031               	btfss	___fladd@b^0,0,c
  5682  000FB2  EFDD  F007         	goto	u2901
  5683  000FB6  EFDF  F007         	goto	u2900
  5684  000FBA                     u2901:
  5685  000FBA  EFE0  F007         	goto	l3029
  5686  000FBE                     u2900:
  5687  000FBE  8E40               	bsf	___fladd@grs^0,7,c
  5688  000FC0                     l3029:
  5689  000FC0  3434               	rlcf	(___fladd@b+3)^0,w,c
  5690  000FC2  3234               	rrcf	(___fladd@b+3)^0,f,c
  5691  000FC4  3233               	rrcf	(___fladd@b+2)^0,f,c
  5692  000FC6  3232               	rrcf	(___fladd@b+1)^0,f,c
  5693  000FC8  3231               	rrcf	___fladd@b^0,f,c
  5694  000FCA  2A3F               	incf	___fladd@bexp^0,f,c
  5695  000FCC                     l927:
  5696  000FCC  503E               	movf	___fladd@aexp^0,w,c
  5697  000FCE  5C3F               	subwf	___fladd@bexp^0,w,c
  5698  000FD0  A0D8               	btfss	status,0,c
  5699  000FD2  EFED  F007         	goto	u2911
  5700  000FD6  EFEF  F007         	goto	u2910
  5701  000FDA                     u2911:
  5702  000FDA  EFC9  F007         	goto	l928
  5703  000FDE                     u2910:
  5704  000FDE                     l926:
  5705  000FDE  BC3D               	btfsc	___fladd@signs^0,6,c
  5706  000FE0  EFF4  F007         	goto	u2921
  5707  000FE4  EFF6  F007         	goto	u2920
  5708  000FE8                     u2921:
  5709  000FE8  EF36  F008         	goto	l3057
  5710  000FEC                     u2920:
  5711  000FEC  503F               	movf	___fladd@bexp^0,w,c
  5712  000FEE  A4D8               	btfss	status,2,c
  5713  000FF0  EFFC  F007         	goto	u2931
  5714  000FF4  EFFE  F007         	goto	u2930
  5715  000FF8                     u2931:
  5716  000FF8  EF08  F008         	goto	l3039
  5717  000FFC                     u2930:
  5718  000FFC  0E00               	movlw	0
  5719  000FFE  6E31               	movwf	?___fladd^0,c
  5720  001000  0E00               	movlw	0
  5721  001002  6E32               	movwf	(?___fladd+1)^0,c
  5722  001004  0E00               	movlw	0
  5723  001006  6E33               	movwf	(?___fladd+2)^0,c
  5724  001008  0E00               	movlw	0
  5725  00100A  6E34               	movwf	(?___fladd+3)^0,c
  5726  00100C  EF57  F009         	goto	l935
  5727  001010                     l3039:
  5728  001010  5035               	movf	___fladd@a^0,w,c
  5729  001012  2631               	addwf	___fladd@b^0,f,c
  5730  001014  5036               	movf	(___fladd@a+1)^0,w,c
  5731  001016  2232               	addwfc	(___fladd@b+1)^0,f,c
  5732  001018  5037               	movf	(___fladd@a+2)^0,w,c
  5733  00101A  2233               	addwfc	(___fladd@b+2)^0,f,c
  5734  00101C  5038               	movf	(___fladd@a+3)^0,w,c
  5735  00101E  2234               	addwfc	(___fladd@b+3)^0,f,c
  5736  001020  A034               	btfss	(___fladd@b+3)^0,0,c
  5737  001022  EF15  F008         	goto	u2941
  5738  001026  EF17  F008         	goto	u2940
  5739  00102A                     u2941:
  5740  00102A  EFC3  F008         	goto	l3093
  5741  00102E                     u2940:
  5742  00102E  A040               	btfss	___fladd@grs^0,0,c
  5743  001030  EF1C  F008         	goto	u2951
  5744  001034  EF1E  F008         	goto	u2950
  5745  001038                     u2951:
  5746  001038  EF24  F008         	goto	l3047
  5747  00103C                     u2950:
  5748  00103C  90D8               	bcf	status,0,c
  5749  00103E  3040               	rrcf	___fladd@grs^0,w,c
  5750  001040  0901               	iorlw	1
  5751  001042  6E40               	movwf	___fladd@grs^0,c
  5752  001044  EF26  F008         	goto	l3049
  5753  001048                     l3047:
  5754  001048  90D8               	bcf	status,0,c
  5755  00104A  3240               	rrcf	___fladd@grs^0,f,c
  5756  00104C                     l3049:
  5757  00104C  A031               	btfss	___fladd@b^0,0,c
  5758  00104E  EF2B  F008         	goto	u2961
  5759  001052  EF2D  F008         	goto	u2960
  5760  001056                     u2961:
  5761  001056  EF2E  F008         	goto	l3053
  5762  00105A                     u2960:
  5763  00105A  8E40               	bsf	___fladd@grs^0,7,c
  5764  00105C                     l3053:
  5765  00105C  3434               	rlcf	(___fladd@b+3)^0,w,c
  5766  00105E  3234               	rrcf	(___fladd@b+3)^0,f,c
  5767  001060  3233               	rrcf	(___fladd@b+2)^0,f,c
  5768  001062  3232               	rrcf	(___fladd@b+1)^0,f,c
  5769  001064  3231               	rrcf	___fladd@b^0,f,c
  5770  001066  2A3F               	incf	___fladd@bexp^0,f,c
  5771  001068  EFC3  F008         	goto	l3093
  5772  00106C                     l3057:
  5773  00106C  5035               	movf	___fladd@a^0,w,c
  5774  00106E  5C31               	subwf	___fladd@b^0,w,c
  5775  001070  5036               	movf	(___fladd@a+1)^0,w,c
  5776  001072  5832               	subwfb	(___fladd@b+1)^0,w,c
  5777  001074  5037               	movf	(___fladd@a+2)^0,w,c
  5778  001076  5833               	subwfb	(___fladd@b+2)^0,w,c
  5779  001078  5034               	movf	(___fladd@b+3)^0,w,c
  5780  00107A  0A80               	xorlw	128
  5781  00107C  6E39               	movwf	??___fladd^0,c
  5782  00107E  5038               	movf	(___fladd@a+3)^0,w,c
  5783  001080  0A80               	xorlw	128
  5784  001082  5839               	subwfb	??___fladd^0,w,c
  5785  001084  B0D8               	btfsc	status,0,c
  5786  001086  EF47  F008         	goto	u2971
  5787  00108A  EF49  F008         	goto	u2970
  5788  00108E                     u2971:
  5789  00108E  EF74  F008         	goto	l3067
  5790  001092                     u2970:
  5791  001092  5031               	movf	___fladd@b^0,w,c
  5792  001094  5C35               	subwf	___fladd@a^0,w,c
  5793  001096  6E39               	movwf	??___fladd^0,c
  5794  001098  5032               	movf	(___fladd@b+1)^0,w,c
  5795  00109A  5836               	subwfb	(___fladd@a+1)^0,w,c
  5796  00109C  6E3A               	movwf	(??___fladd+1)^0,c
  5797  00109E  5033               	movf	(___fladd@b+2)^0,w,c
  5798  0010A0  5837               	subwfb	(___fladd@a+2)^0,w,c
  5799  0010A2  6E3B               	movwf	(??___fladd+2)^0,c
  5800  0010A4  5034               	movf	(___fladd@b+3)^0,w,c
  5801  0010A6  5838               	subwfb	(___fladd@a+3)^0,w,c
  5802  0010A8  6E3C               	movwf	(??___fladd+3)^0,c
  5803  0010AA  0EFF               	movlw	255
  5804  0010AC  2439               	addwf	??___fladd^0,w,c
  5805  0010AE  6E31               	movwf	___fladd@b^0,c
  5806  0010B0  0EFF               	movlw	255
  5807  0010B2  203A               	addwfc	(??___fladd+1)^0,w,c
  5808  0010B4  6E32               	movwf	(___fladd@b+1)^0,c
  5809  0010B6  0EFF               	movlw	255
  5810  0010B8  203B               	addwfc	(??___fladd+2)^0,w,c
  5811  0010BA  6E33               	movwf	(___fladd@b+2)^0,c
  5812  0010BC  0EFF               	movlw	255
  5813  0010BE  203C               	addwfc	(??___fladd+3)^0,w,c
  5814  0010C0  6E34               	movwf	(___fladd@b+3)^0,c
  5815  0010C2  0E80               	movlw	128
  5816  0010C4  1A3D               	xorwf	___fladd@signs^0,f,c
  5817  0010C6  6C40               	negf	___fladd@grs^0,c
  5818  0010C8  5040               	movf	___fladd@grs^0,w,c
  5819  0010CA  A4D8               	btfss	status,2,c
  5820  0010CC  EF6A  F008         	goto	u2981
  5821  0010D0  EF6C  F008         	goto	u2980
  5822  0010D4                     u2981:
  5823  0010D4  EF7C  F008         	goto	l943
  5824  0010D8                     u2980:
  5825  0010D8  0E01               	movlw	1
  5826  0010DA  2631               	addwf	___fladd@b^0,f,c
  5827  0010DC  0E00               	movlw	0
  5828  0010DE  2232               	addwfc	(___fladd@b+1)^0,f,c
  5829  0010E0  2233               	addwfc	(___fladd@b+2)^0,f,c
  5830  0010E2  2234               	addwfc	(___fladd@b+3)^0,f,c
  5831  0010E4  EF7C  F008         	goto	l943
  5832  0010E8                     l3067:
  5833  0010E8  5035               	movf	___fladd@a^0,w,c
  5834  0010EA  5E31               	subwf	___fladd@b^0,f,c
  5835  0010EC  5036               	movf	(___fladd@a+1)^0,w,c
  5836  0010EE  5A32               	subwfb	(___fladd@b+1)^0,f,c
  5837  0010F0  5037               	movf	(___fladd@a+2)^0,w,c
  5838  0010F2  5A33               	subwfb	(___fladd@b+2)^0,f,c
  5839  0010F4  5038               	movf	(___fladd@a+3)^0,w,c
  5840  0010F6  5A34               	subwfb	(___fladd@b+3)^0,f,c
  5841  0010F8                     l943:
  5842  0010F8  5031               	movf	___fladd@b^0,w,c
  5843  0010FA  1032               	iorwf	(___fladd@b+1)^0,w,c
  5844  0010FC  1033               	iorwf	(___fladd@b+2)^0,w,c
  5845  0010FE  1034               	iorwf	(___fladd@b+3)^0,w,c
  5846  001100  A4D8               	btfss	status,2,c
  5847  001102  EF85  F008         	goto	u2991
  5848  001106  EF87  F008         	goto	u2990
  5849  00110A                     u2991:
  5850  00110A  EFBC  F008         	goto	l3091
  5851  00110E                     u2990:
  5852  00110E  5040               	movf	___fladd@grs^0,w,c
  5853  001110  A4D8               	btfss	status,2,c
  5854  001112  EF8D  F008         	goto	u3001
  5855  001116  EF8F  F008         	goto	u3000
  5856  00111A                     u3001:
  5857  00111A  EFBC  F008         	goto	l3091
  5858  00111E                     u3000:
  5859  00111E  0E00               	movlw	0
  5860  001120  6E31               	movwf	?___fladd^0,c
  5861  001122  0E00               	movlw	0
  5862  001124  6E32               	movwf	(?___fladd+1)^0,c
  5863  001126  0E00               	movlw	0
  5864  001128  6E33               	movwf	(?___fladd+2)^0,c
  5865  00112A  0E00               	movlw	0
  5866  00112C  6E34               	movwf	(?___fladd+3)^0,c
  5867  00112E  EF57  F009         	goto	l935
  5868  001132                     l3075:
  5869  001132  90D8               	bcf	status,0,c
  5870  001134  3631               	rlcf	___fladd@b^0,f,c
  5871  001136  3632               	rlcf	(___fladd@b+1)^0,f,c
  5872  001138  3633               	rlcf	(___fladd@b+2)^0,f,c
  5873  00113A  3634               	rlcf	(___fladd@b+3)^0,f,c
  5874  00113C  AE40               	btfss	___fladd@grs^0,7,c
  5875  00113E  EFA3  F008         	goto	u3011
  5876  001142  EFA5  F008         	goto	u3010
  5877  001146                     u3011:
  5878  001146  EFA6  F008         	goto	l3081
  5879  00114A                     u3010:
  5880  00114A  8031               	bsf	___fladd@b^0,0,c
  5881  00114C                     l3081:
  5882  00114C  A040               	btfss	___fladd@grs^0,0,c
  5883  00114E  EFAB  F008         	goto	u3021
  5884  001152  EFAD  F008         	goto	u3020
  5885  001156                     u3021:
  5886  001156  EFB1  F008         	goto	l3085
  5887  00115A                     u3020:
  5888  00115A  80D8               	bsf	status,0,c
  5889  00115C  3640               	rlcf	___fladd@grs^0,f,c
  5890  00115E  EFB3  F008         	goto	l3087
  5891  001162                     l3085:
  5892  001162  90D8               	bcf	status,0,c
  5893  001164  3640               	rlcf	___fladd@grs^0,f,c
  5894  001166                     l3087:
  5895  001166  503F               	movf	___fladd@bexp^0,w,c
  5896  001168  B4D8               	btfsc	status,2,c
  5897  00116A  EFB9  F008         	goto	u3031
  5898  00116E  EFBB  F008         	goto	u3030
  5899  001172                     u3031:
  5900  001172  EFBC  F008         	goto	l3091
  5901  001176                     u3030:
  5902  001176  063F               	decf	___fladd@bexp^0,f,c
  5903  001178                     l3091:
  5904  001178  AE33               	btfss	(___fladd@b+2)^0,7,c
  5905  00117A  EFC1  F008         	goto	u3041
  5906  00117E  EFC3  F008         	goto	u3040
  5907  001182                     u3041:
  5908  001182  EF99  F008         	goto	l3075
  5909  001186                     u3040:
  5910  001186                     l3093:
  5911  001186  0E00               	movlw	0
  5912  001188  6E3E               	movwf	___fladd@aexp^0,c
  5913  00118A  AE40               	btfss	___fladd@grs^0,7,c
  5914  00118C  EFCA  F008         	goto	u3051
  5915  001190  EFCC  F008         	goto	u3050
  5916  001194                     u3051:
  5917  001194  EFE4  F008         	goto	l952
  5918  001198                     u3050:
  5919  001198  C040  F039         	movff	___fladd@grs,??___fladd
  5920  00119C  0E7F               	movlw	127
  5921  00119E  1639               	andwf	??___fladd^0,f,c
  5922  0011A0  B4D8               	btfsc	status,2,c
  5923  0011A2  EFD5  F008         	goto	u3061
  5924  0011A6  EFD7  F008         	goto	u3060
  5925  0011AA                     u3061:
  5926  0011AA  EFDB  F008         	goto	l953
  5927  0011AE                     u3060:
  5928  0011AE                     l3099:
  5929  0011AE  0E01               	movlw	1
  5930  0011B0  6E3E               	movwf	___fladd@aexp^0,c
  5931  0011B2  EFE4  F008         	goto	l952
  5932  0011B6                     l953:
  5933  0011B6  A031               	btfss	___fladd@b^0,0,c
  5934  0011B8  EFE0  F008         	goto	u3071
  5935  0011BC  EFE2  F008         	goto	u3070
  5936  0011C0                     u3071:
  5937  0011C0  EFE4  F008         	goto	l952
  5938  0011C4                     u3070:
  5939  0011C4  EFD7  F008         	goto	l3099
  5940  0011C8                     l952:
  5941  0011C8  503E               	movf	___fladd@aexp^0,w,c
  5942  0011CA  B4D8               	btfsc	status,2,c
  5943  0011CC  EFEA  F008         	goto	u3081
  5944  0011D0  EFEC  F008         	goto	u3080
  5945  0011D4                     u3081:
  5946  0011D4  EF17  F009         	goto	l3111
  5947  0011D8                     u3080:
  5948  0011D8  0E01               	movlw	1
  5949  0011DA  2631               	addwf	___fladd@b^0,f,c
  5950  0011DC  0E00               	movlw	0
  5951  0011DE  2232               	addwfc	(___fladd@b+1)^0,f,c
  5952  0011E0  2233               	addwfc	(___fladd@b+2)^0,f,c
  5953  0011E2  2234               	addwfc	(___fladd@b+3)^0,f,c
  5954  0011E4  A034               	btfss	(___fladd@b+3)^0,0,c
  5955  0011E6  EFF7  F008         	goto	u3091
  5956  0011EA  EFF9  F008         	goto	u3090
  5957  0011EE                     u3091:
  5958  0011EE  EF17  F009         	goto	l3111
  5959  0011F2                     u3090:
  5960  0011F2  C031  F039         	movff	___fladd@b,??___fladd
  5961  0011F6  C032  F03A         	movff	___fladd@b+1,??___fladd+1
  5962  0011FA  C033  F03B         	movff	___fladd@b+2,??___fladd+2
  5963  0011FE  C034  F03C         	movff	___fladd@b+3,??___fladd+3
  5964  001202  343C               	rlcf	(??___fladd+3)^0,w,c
  5965  001204  323C               	rrcf	(??___fladd+3)^0,f,c
  5966  001206  323B               	rrcf	(??___fladd+2)^0,f,c
  5967  001208  323A               	rrcf	(??___fladd+1)^0,f,c
  5968  00120A  3239               	rrcf	??___fladd^0,f,c
  5969  00120C  C039  F031         	movff	??___fladd,___fladd@b
  5970  001210  C03A  F032         	movff	??___fladd+1,___fladd@b+1
  5971  001214  C03B  F033         	movff	??___fladd+2,___fladd@b+2
  5972  001218  C03C  F034         	movff	??___fladd+3,___fladd@b+3
  5973  00121C  283F               	incf	___fladd@bexp^0,w,c
  5974  00121E  B4D8               	btfsc	status,2,c
  5975  001220  EF14  F009         	goto	u3101
  5976  001224  EF16  F009         	goto	u3100
  5977  001228                     u3101:
  5978  001228  EF17  F009         	goto	l3111
  5979  00122C                     u3100:
  5980  00122C  2A3F               	incf	___fladd@bexp^0,f,c
  5981  00122E                     l3111:
  5982  00122E  283F               	incf	___fladd@bexp^0,w,c
  5983  001230  B4D8               	btfsc	status,2,c
  5984  001232  EF1D  F009         	goto	u3111
  5985  001236  EF1F  F009         	goto	u3110
  5986  00123A                     u3111:
  5987  00123A  EF27  F009         	goto	l3115
  5988  00123E                     u3110:
  5989  00123E  503F               	movf	___fladd@bexp^0,w,c
  5990  001240  A4D8               	btfss	status,2,c
  5991  001242  EF25  F009         	goto	u3121
  5992  001246  EF27  F009         	goto	u3120
  5993  00124A                     u3121:
  5994  00124A  EF39  F009         	goto	l3119
  5995  00124E                     u3120:
  5996  00124E                     l3115:
  5997  00124E  0E00               	movlw	0
  5998  001250  6E31               	movwf	___fladd@b^0,c
  5999  001252  0E00               	movlw	0
  6000  001254  6E32               	movwf	(___fladd@b+1)^0,c
  6001  001256  0E00               	movlw	0
  6002  001258  6E33               	movwf	(___fladd@b+2)^0,c
  6003  00125A  0E00               	movlw	0
  6004  00125C  6E34               	movwf	(___fladd@b+3)^0,c
  6005  00125E  503F               	movf	___fladd@bexp^0,w,c
  6006  001260  A4D8               	btfss	status,2,c
  6007  001262  EF35  F009         	goto	u3131
  6008  001266  EF37  F009         	goto	u3130
  6009  00126A                     u3131:
  6010  00126A  EF39  F009         	goto	l3119
  6011  00126E                     u3130:
  6012  00126E  0E00               	movlw	0
  6013  001270  6E3D               	movwf	___fladd@signs^0,c
  6014  001272                     l3119:
  6015  001272  A03F               	btfss	___fladd@bexp^0,0,c
  6016  001274  EF3E  F009         	goto	u3141
  6017  001278  EF40  F009         	goto	u3140
  6018  00127C                     u3141:
  6019  00127C  EF43  F009         	goto	l3123
  6020  001280                     u3140:
  6021  001280  8E33               	bsf	(___fladd@b+2)^0,7,c
  6022  001282  EF44  F009         	goto	l3125
  6023  001286                     l3123:
  6024  001286  9E33               	bcf	(___fladd@b+2)^0,7,c
  6025  001288                     l3125:
  6026  001288  90D8               	bcf	status,0,c
  6027  00128A  303F               	rrcf	___fladd@bexp^0,w,c
  6028  00128C  6E34               	movwf	(___fladd@b+3)^0,c
  6029  00128E  AE3D               	btfss	___fladd@signs^0,7,c
  6030  001290  EF4C  F009         	goto	u3151
  6031  001294  EF4E  F009         	goto	u3150
  6032  001298                     u3151:
  6033  001298  EF4F  F009         	goto	l3131
  6034  00129C                     u3150:
  6035  00129C  8E34               	bsf	(___fladd@b+3)^0,7,c
  6036  00129E                     l3131:
  6037  00129E  C031  F031         	movff	___fladd@b,?___fladd
  6038  0012A2  C032  F032         	movff	___fladd@b+1,?___fladd+1
  6039  0012A6  C033  F033         	movff	___fladd@b+2,?___fladd+2
  6040  0012AA  C034  F034         	movff	___fladd@b+3,?___fladd+3
  6041  0012AE                     l935:
  6042  0012AE  0012               	return		;funcret
  6043  0012B0                     __end_of___fladd:
  6044                           	callstack 0
  6045                           
  6046 ;; *************** function _LigarLed *****************
  6047 ;; Defined at:
  6048 ;;		line 58 in file "PF.c"
  6049 ;; Parameters:    Size  Location     Type
  6050 ;;  num             1    wreg     unsigned char 
  6051 ;;  pot             1    0[COMRAM] unsigned char 
  6052 ;; Auto vars:     Size  Location     Type
  6053 ;;  num             1    1[COMRAM] unsigned char 
  6054 ;;  j               1    4[COMRAM] unsigned char 
  6055 ;;  a               1    3[COMRAM] unsigned char 
  6056 ;;  i               1    2[COMRAM] unsigned char 
  6057 ;; Return value:  Size  Location     Type
  6058 ;;                  1    wreg      void 
  6059 ;; Registers used:
  6060 ;;		wreg, status,2, status,0
  6061 ;; Tracked objects:
  6062 ;;		On entry : 0/0
  6063 ;;		On exit  : 0/0
  6064 ;;		Unchanged: 0/0
  6065 ;; Data sizes:     COMRAM   BANK0   BANK1   BANK2   BANK3   BANK4   BANK5
  6066 ;;      Params:         1       0       0       0       0       0       0
  6067 ;;      Locals:         4       0       0       0       0       0       0
  6068 ;;      Temps:          0       0       0       0       0       0       0
  6069 ;;      Totals:         5       0       0       0       0       0       0
  6070 ;;Total ram usage:        5 bytes
  6071 ;; Hardware stack levels used: 1
  6072 ;; This function calls:
  6073 ;;		Nothing
  6074 ;; This function is called by:
  6075 ;;		_main
  6076 ;; This function uses a non-reentrant model
  6077 ;;
  6078                           
  6079                           	psect	text30
  6080  0018C6                     __ptext30:
  6081                           	callstack 0
  6082  0018C6                     _LigarLed:
  6083                           	callstack 30
  6084                           
  6085                           ;incstack = 0
  6086                           ;LigarLed@num stored from wreg
  6087  0018C6  6E32               	movwf	LigarLed@num^0,c
  6088  0018C8                     
  6089                           ;PF.c: 59:     unsigned char i, j, a;;PF.c: 60:     PORTD = 0x00;
  6090  0018C8  0E00               	movlw	0
  6091  0018CA  6E83               	movwf	131,c	;volatile
  6092                           
  6093                           ;PF.c: 61:     for (a = 0; a < 8; a++) {
  6094  0018CC  0E00               	movlw	0
  6095  0018CE  6E34               	movwf	LigarLed@a^0,c
  6096  0018D0                     l2795:
  6097                           
  6098                           ;PF.c: 62:         PORTD += num;
  6099  0018D0  5032               	movf	LigarLed@num^0,w,c	;volatile
  6100  0018D2  2683               	addwf	131,f,c	;volatile
  6101                           
  6102                           ;PF.c: 63:         num = num << 1;
  6103  0018D4  5032               	movf	LigarLed@num^0,w,c
  6104  0018D6  2432               	addwf	LigarLed@num^0,w,c
  6105  0018D8  6E32               	movwf	LigarLed@num^0,c
  6106  0018DA                     
  6107                           ;PF.c: 64:         for (i = 0; i < 255; i++) {
  6108  0018DA  0E00               	movlw	0
  6109  0018DC  6E33               	movwf	LigarLed@i^0,c
  6110  0018DE                     l2803:
  6111                           
  6112                           ;PF.c: 65:             if (pot == '1') {
  6113  0018DE  0E31               	movlw	49
  6114  0018E0  1831               	xorwf	LigarLed@pot^0,w,c
  6115  0018E2  A4D8               	btfss	status,2,c
  6116  0018E4  EF76  F00C         	goto	u2621
  6117  0018E8  EF78  F00C         	goto	u2620
  6118  0018EC                     u2621:
  6119  0018EC  EF9B  F00C         	goto	l2835
  6120  0018F0                     u2620:
  6121  0018F0                     
  6122                           ;PF.c: 66:                 for (j = 0; j < 255; j++);
  6123  0018F0  0E00               	movlw	0
  6124  0018F2  6E35               	movwf	LigarLed@j^0,c
  6125  0018F4                     l2811:
  6126  0018F4  2A35               	incf	LigarLed@j^0,f,c
  6127  0018F6  2835               	incf	LigarLed@j^0,w,c
  6128  0018F8  A4D8               	btfss	status,2,c
  6129  0018FA  EF81  F00C         	goto	u2631
  6130  0018FE  EF83  F00C         	goto	u2630
  6131  001902                     u2631:
  6132  001902  EF7A  F00C         	goto	l2811
  6133  001906                     u2630:
  6134  001906                     
  6135                           ;PF.c: 67:                 for (j = 0; j < 255; j++);
  6136  001906  0E00               	movlw	0
  6137  001908  6E35               	movwf	LigarLed@j^0,c
  6138  00190A                     l2821:
  6139  00190A  2A35               	incf	LigarLed@j^0,f,c
  6140  00190C  2835               	incf	LigarLed@j^0,w,c
  6141  00190E  A4D8               	btfss	status,2,c
  6142  001910  EF8C  F00C         	goto	u2641
  6143  001914  EF8E  F00C         	goto	u2640
  6144  001918                     u2641:
  6145  001918  EF85  F00C         	goto	l2821
  6146  00191C                     u2640:
  6147  00191C                     
  6148                           ;PF.c: 68:                 for (j = 0; j < 255; j++);
  6149  00191C  0E00               	movlw	0
  6150  00191E  6E35               	movwf	LigarLed@j^0,c
  6151  001920                     l2831:
  6152  001920  2A35               	incf	LigarLed@j^0,f,c
  6153  001922  2835               	incf	LigarLed@j^0,w,c
  6154  001924  A4D8               	btfss	status,2,c
  6155  001926  EF97  F00C         	goto	u2651
  6156  00192A  EF99  F00C         	goto	u2650
  6157  00192E                     u2651:
  6158  00192E  EF90  F00C         	goto	l2831
  6159  001932                     u2650:
  6160  001932  EFFE  F00C         	goto	l2925
  6161  001936                     l2835:
  6162                           
  6163                           ;PF.c: 70:                 for (j = 0; j < 255; j++);
  6164  001936  0E00               	movlw	0
  6165  001938  6E35               	movwf	LigarLed@j^0,c
  6166  00193A                     l2841:
  6167  00193A  2A35               	incf	LigarLed@j^0,f,c
  6168  00193C  2835               	incf	LigarLed@j^0,w,c
  6169  00193E  A4D8               	btfss	status,2,c
  6170  001940  EFA4  F00C         	goto	u2661
  6171  001944  EFA6  F00C         	goto	u2660
  6172  001948                     u2661:
  6173  001948  EF9D  F00C         	goto	l2841
  6174  00194C                     u2660:
  6175  00194C                     
  6176                           ;PF.c: 71:                 for (j = 0; j < 255; j++);
  6177  00194C  0E00               	movlw	0
  6178  00194E  6E35               	movwf	LigarLed@j^0,c
  6179  001950                     l2851:
  6180  001950  2A35               	incf	LigarLed@j^0,f,c
  6181  001952  2835               	incf	LigarLed@j^0,w,c
  6182  001954  A4D8               	btfss	status,2,c
  6183  001956  EFAF  F00C         	goto	u2671
  6184  00195A  EFB1  F00C         	goto	u2670
  6185  00195E                     u2671:
  6186  00195E  EFA8  F00C         	goto	l2851
  6187  001962                     u2670:
  6188  001962                     
  6189                           ;PF.c: 72:                 for (j = 0; j < 255; j++);
  6190  001962  0E00               	movlw	0
  6191  001964  6E35               	movwf	LigarLed@j^0,c
  6192  001966                     l2861:
  6193  001966  2A35               	incf	LigarLed@j^0,f,c
  6194  001968  2835               	incf	LigarLed@j^0,w,c
  6195  00196A  A4D8               	btfss	status,2,c
  6196  00196C  EFBA  F00C         	goto	u2681
  6197  001970  EFBC  F00C         	goto	u2680
  6198  001974                     u2681:
  6199  001974  EFB3  F00C         	goto	l2861
  6200  001978                     u2680:
  6201  001978                     
  6202                           ;PF.c: 73:                 for (j = 0; j < 255; j++);
  6203  001978  0E00               	movlw	0
  6204  00197A  6E35               	movwf	LigarLed@j^0,c
  6205  00197C                     l2871:
  6206  00197C  2A35               	incf	LigarLed@j^0,f,c
  6207  00197E  2835               	incf	LigarLed@j^0,w,c
  6208  001980  A4D8               	btfss	status,2,c
  6209  001982  EFC5  F00C         	goto	u2691
  6210  001986  EFC7  F00C         	goto	u2690
  6211  00198A                     u2691:
  6212  00198A  EFBE  F00C         	goto	l2871
  6213  00198E                     u2690:
  6214  00198E                     
  6215                           ;PF.c: 74:                 for (j = 0; j < 255; j++);
  6216  00198E  0E00               	movlw	0
  6217  001990  6E35               	movwf	LigarLed@j^0,c
  6218  001992                     l2881:
  6219  001992  2A35               	incf	LigarLed@j^0,f,c
  6220  001994  2835               	incf	LigarLed@j^0,w,c
  6221  001996  A4D8               	btfss	status,2,c
  6222  001998  EFD0  F00C         	goto	u2701
  6223  00199C  EFD2  F00C         	goto	u2700
  6224  0019A0                     u2701:
  6225  0019A0  EFC9  F00C         	goto	l2881
  6226  0019A4                     u2700:
  6227  0019A4                     
  6228                           ;PF.c: 75:                 for (j = 0; j < 255; j++);
  6229  0019A4  0E00               	movlw	0
  6230  0019A6  6E35               	movwf	LigarLed@j^0,c
  6231  0019A8                     l2891:
  6232  0019A8  2A35               	incf	LigarLed@j^0,f,c
  6233  0019AA  2835               	incf	LigarLed@j^0,w,c
  6234  0019AC  A4D8               	btfss	status,2,c
  6235  0019AE  EFDB  F00C         	goto	u2711
  6236  0019B2  EFDD  F00C         	goto	u2710
  6237  0019B6                     u2711:
  6238  0019B6  EFD4  F00C         	goto	l2891
  6239  0019BA                     u2710:
  6240  0019BA                     
  6241                           ;PF.c: 76:                 for (j = 0; j < 255; j++);
  6242  0019BA  0E00               	movlw	0
  6243  0019BC  6E35               	movwf	LigarLed@j^0,c
  6244  0019BE                     l2901:
  6245  0019BE  2A35               	incf	LigarLed@j^0,f,c
  6246  0019C0  2835               	incf	LigarLed@j^0,w,c
  6247  0019C2  A4D8               	btfss	status,2,c
  6248  0019C4  EFE6  F00C         	goto	u2721
  6249  0019C8  EFE8  F00C         	goto	u2720
  6250  0019CC                     u2721:
  6251  0019CC  EFDF  F00C         	goto	l2901
  6252  0019D0                     u2720:
  6253  0019D0                     
  6254                           ;PF.c: 77:                 for (j = 0; j < 255; j++);
  6255  0019D0  0E00               	movlw	0
  6256  0019D2  6E35               	movwf	LigarLed@j^0,c
  6257  0019D4                     l2911:
  6258  0019D4  2A35               	incf	LigarLed@j^0,f,c
  6259  0019D6  2835               	incf	LigarLed@j^0,w,c
  6260  0019D8  A4D8               	btfss	status,2,c
  6261  0019DA  EFF1  F00C         	goto	u2731
  6262  0019DE  EFF3  F00C         	goto	u2730
  6263  0019E2                     u2731:
  6264  0019E2  EFEA  F00C         	goto	l2911
  6265  0019E6                     u2730:
  6266  0019E6                     
  6267                           ;PF.c: 78:                 for (j = 0; j < 255; j++);
  6268  0019E6  0E00               	movlw	0
  6269  0019E8  6E35               	movwf	LigarLed@j^0,c
  6270  0019EA                     l2921:
  6271  0019EA  2A35               	incf	LigarLed@j^0,f,c
  6272  0019EC  2835               	incf	LigarLed@j^0,w,c
  6273  0019EE  A4D8               	btfss	status,2,c
  6274  0019F0  EFFC  F00C         	goto	u2741
  6275  0019F4  EFFE  F00C         	goto	u2740
  6276  0019F8                     u2741:
  6277  0019F8  EFF5  F00C         	goto	l2921
  6278  0019FC                     u2740:
  6279  0019FC                     l2925:
  6280                           
  6281                           ;PF.c: 80:         }
  6282  0019FC  2A33               	incf	LigarLed@i^0,f,c
  6283  0019FE  2833               	incf	LigarLed@i^0,w,c
  6284  001A00  A4D8               	btfss	status,2,c
  6285  001A02  EF05  F00D         	goto	u2751
  6286  001A06  EF07  F00D         	goto	u2750
  6287  001A0A                     u2751:
  6288  001A0A  EF6F  F00C         	goto	l2803
  6289  001A0E                     u2750:
  6290  001A0E                     
  6291                           ;PF.c: 81:     }
  6292  001A0E  2A34               	incf	LigarLed@a^0,f,c
  6293  001A10  0E07               	movlw	7
  6294  001A12  6434               	cpfsgt	LigarLed@a^0,c
  6295  001A14  EF0E  F00D         	goto	u2761
  6296  001A18  EF10  F00D         	goto	u2760
  6297  001A1C                     u2761:
  6298  001A1C  EF68  F00C         	goto	l2795
  6299  001A20                     u2760:
  6300  001A20  0012               	return		;funcret
  6301  001A22                     __end_of_LigarLed:
  6302                           	callstack 0
  6303                           
  6304                           	psect	rparam
  6305  0000                     
  6306                           	psect	idloc
  6307                           
  6308                           ;Config register IDLOC0 @ 0x200000
  6309                           ;	unspecified, using default values
  6310  200000                     	org	2097152
  6311  200000  FF                 	db	255
  6312                           
  6313                           ;Config register IDLOC1 @ 0x200001
  6314                           ;	unspecified, using default values
  6315  200001                     	org	2097153
  6316  200001  FF                 	db	255
  6317                           
  6318                           ;Config register IDLOC2 @ 0x200002
  6319                           ;	unspecified, using default values
  6320  200002                     	org	2097154
  6321  200002  FF                 	db	255
  6322                           
  6323                           ;Config register IDLOC3 @ 0x200003
  6324                           ;	unspecified, using default values
  6325  200003                     	org	2097155
  6326  200003  FF                 	db	255
  6327                           
  6328                           ;Config register IDLOC4 @ 0x200004
  6329                           ;	unspecified, using default values
  6330  200004                     	org	2097156
  6331  200004  FF                 	db	255
  6332                           
  6333                           ;Config register IDLOC5 @ 0x200005
  6334                           ;	unspecified, using default values
  6335  200005                     	org	2097157
  6336  200005  FF                 	db	255
  6337                           
  6338                           ;Config register IDLOC6 @ 0x200006
  6339                           ;	unspecified, using default values
  6340  200006                     	org	2097158
  6341  200006  FF                 	db	255
  6342                           
  6343                           ;Config register IDLOC7 @ 0x200007
  6344                           ;	unspecified, using default values
  6345  200007                     	org	2097159
  6346  200007  FF                 	db	255
  6347                           
  6348                           	psect	config
  6349                           
  6350                           ; Padding undefined space
  6351  300000                     	org	3145728
  6352  300000  FF                 	db	255
  6353                           
  6354                           ;Config register CONFIG1H @ 0x300001
  6355                           ;	Oscillator Selection bits
  6356                           ;	OSC = HS, HS oscillator
  6357                           ;	Fail-Safe Clock Monitor Enable bit
  6358                           ;	FCMEN = OFF, Fail-Safe Clock Monitor disabled
  6359                           ;	Internal/External Oscillator Switchover bit
  6360                           ;	IESO = OFF, Oscillator Switchover mode disabled
  6361  300001                     	org	3145729
  6362  300001  02                 	db	2
  6363                           
  6364                           ;Config register CONFIG2L @ 0x300002
  6365                           ;	Power-up Timer Enable bit
  6366                           ;	PWRT = OFF, PWRT disabled
  6367                           ;	Brown-out Reset Enable bits
  6368                           ;	BOREN = OFF, Brown-out Reset disabled in hardware and software
  6369                           ;	Brown Out Reset Voltage bits
  6370                           ;	BORV = 0x2E, user specified literal
  6371  300002                     	org	3145730
  6372  300002  71                 	db	369
  6373                           
  6374                           ;Config register CONFIG2H @ 0x300003
  6375                           ;	Watchdog Timer Enable bit
  6376                           ;	WDT = OFF, WDT disabled (control is placed on the SWDTEN bit)
  6377                           ;	Watchdog Timer Postscale Select bits
  6378                           ;	WDTPS = 1, 1:1
  6379  300003                     	org	3145731
  6380  300003  00                 	db	0
  6381                           
  6382                           ; Padding undefined space
  6383  300004                     	org	3145732
  6384  300004  FF                 	db	255
  6385                           
  6386                           ;Config register CONFIG3H @ 0x300005
  6387                           ;	CCP2 MUX bit
  6388                           ;	CCP2MX = PORTC, CCP2 input/output is multiplexed with RC1
  6389                           ;	PORTB A/D Enable bit
  6390                           ;	PBADEN = ON, PORTB<4:0> pins are configured as analog input channels on Reset
  6391                           ;	Low-Power Timer1 Oscillator Enable bit
  6392                           ;	LPT1OSC = OFF, Timer1 configured for higher power operation
  6393                           ;	MCLR Pin Enable bit
  6394                           ;	MCLRE = ON, MCLR pin enabled; RE3 input pin disabled
  6395  300005                     	org	3145733
  6396  300005  83                 	db	131
  6397                           
  6398                           ;Config register CONFIG4L @ 0x300006
  6399                           ;	Stack Full/Underflow Reset Enable bit
  6400                           ;	STVREN = OFF, Stack full/underflow will not cause Reset
  6401                           ;	Single-Supply ICSP Enable bit
  6402                           ;	LVP = OFF, Single-Supply ICSP disabled
  6403                           ;	Extended Instruction Set Enable bit
  6404                           ;	XINST = OFF, Instruction set extension and Indexed Addressing mode disabled (Legacy mo
      +                          de)
  6405                           ;	Background Debugger Enable bit
  6406                           ;	DEBUG = OFF, Background debugger disabled, RB6 and RB7 configured as general purpose I
      +                          /O pins
  6407  300006                     	org	3145734
  6408  300006  80                 	db	128
  6409                           
  6410                           ; Padding undefined space
  6411  300007                     	org	3145735
  6412  300007  FF                 	db	255
  6413                           
  6414                           ;Config register CONFIG5L @ 0x300008
  6415                           ;	Code Protection bit
  6416                           ;	CP0 = OFF, Block 0 (000800-001FFFh) not code-protected
  6417                           ;	Code Protection bit
  6418                           ;	CP1 = OFF, Block 1 (002000-003FFFh) not code-protected
  6419                           ;	Code Protection bit
  6420                           ;	CP2 = OFF, Block 2 (004000-005FFFh) not code-protected
  6421                           ;	Code Protection bit
  6422                           ;	CP3 = OFF, Block 3 (006000-007FFFh) not code-protected
  6423  300008                     	org	3145736
  6424  300008  0F                 	db	15
  6425                           
  6426                           ;Config register CONFIG5H @ 0x300009
  6427                           ;	Boot Block Code Protection bit
  6428                           ;	CPB = OFF, Boot block (000000-0007FFh) not code-protected
  6429                           ;	Data EEPROM Code Protection bit
  6430                           ;	CPD = OFF, Data EEPROM not code-protected
  6431  300009                     	org	3145737
  6432  300009  C0                 	db	192
  6433                           
  6434                           ;Config register CONFIG6L @ 0x30000A
  6435                           ;	Write Protection bit
  6436                           ;	WRT0 = OFF, Block 0 (000800-001FFFh) not write-protected
  6437                           ;	Write Protection bit
  6438                           ;	WRT1 = OFF, Block 1 (002000-003FFFh) not write-protected
  6439                           ;	Write Protection bit
  6440                           ;	WRT2 = OFF, Block 2 (004000-005FFFh) not write-protected
  6441                           ;	Write Protection bit
  6442                           ;	WRT3 = OFF, Block 3 (006000-007FFFh) not write-protected
  6443  30000A                     	org	3145738
  6444  30000A  0F                 	db	15
  6445                           
  6446                           ;Config register CONFIG6H @ 0x30000B
  6447                           ;	Configuration Register Write Protection bit
  6448                           ;	WRTC = OFF, Configuration registers (300000-3000FFh) not write-protected
  6449                           ;	Boot Block Write Protection bit
  6450                           ;	WRTB = OFF, Boot block (000000-0007FFh) not write-protected
  6451                           ;	Data EEPROM Write Protection bit
  6452                           ;	WRTD = OFF, Data EEPROM not write-protected
  6453  30000B                     	org	3145739
  6454  30000B  E0                 	db	224
  6455                           
  6456                           ;Config register CONFIG7L @ 0x30000C
  6457                           ;	Table Read Protection bit
  6458                           ;	EBTR0 = OFF, Block 0 (000800-001FFFh) not protected from table reads executed in other
      +                           blocks
  6459                           ;	Table Read Protection bit
  6460                           ;	EBTR1 = OFF, Block 1 (002000-003FFFh) not protected from table reads executed in other
      +                           blocks
  6461                           ;	Table Read Protection bit
  6462                           ;	EBTR2 = OFF, Block 2 (004000-005FFFh) not protected from table reads executed in other
      +                           blocks
  6463                           ;	Table Read Protection bit
  6464                           ;	EBTR3 = OFF, Block 3 (006000-007FFFh) not protected from table reads executed in other
      +                           blocks
  6465  30000C                     	org	3145740
  6466  30000C  0F                 	db	15
  6467                           
  6468                           ;Config register CONFIG7H @ 0x30000D
  6469                           ;	Boot Block Table Read Protection bit
  6470                           ;	EBTRB = OFF, Boot block (000000-0007FFh) not protected from table reads executed in ot
      +                          her blocks
  6471  30000D                     	org	3145741
  6472  30000D  40                 	db	64
  6473                           tosu	equ	0xFFF
  6474                           tosh	equ	0xFFE
  6475                           tosl	equ	0xFFD
  6476                           stkptr	equ	0xFFC
  6477                           pclatu	equ	0xFFB
  6478                           pclath	equ	0xFFA
  6479                           pcl	equ	0xFF9
  6480                           tblptru	equ	0xFF8
  6481                           tblptrh	equ	0xFF7
  6482                           tblptrl	equ	0xFF6
  6483                           tablat	equ	0xFF5
  6484                           prodh	equ	0xFF4
  6485                           prodl	equ	0xFF3
  6486                           indf0	equ	0xFEF
  6487                           postinc0	equ	0xFEE
  6488                           postdec0	equ	0xFED
  6489                           preinc0	equ	0xFEC
  6490                           plusw0	equ	0xFEB
  6491                           fsr0h	equ	0xFEA
  6492                           fsr0l	equ	0xFE9
  6493                           wreg	equ	0xFE8
  6494                           indf1	equ	0xFE7
  6495                           postinc1	equ	0xFE6
  6496                           postdec1	equ	0xFE5
  6497                           preinc1	equ	0xFE4
  6498                           plusw1	equ	0xFE3
  6499                           fsr1h	equ	0xFE2
  6500                           fsr1l	equ	0xFE1
  6501                           bsr	equ	0xFE0
  6502                           indf2	equ	0xFDF
  6503                           postinc2	equ	0xFDE
  6504                           postdec2	equ	0xFDD
  6505                           preinc2	equ	0xFDC
  6506                           plusw2	equ	0xFDB
  6507                           fsr2h	equ	0xFDA
  6508                           fsr2l	equ	0xFD9
  6509                           status	equ	0xFD8

Data Sizes:
    Strings     155
    Constant    16
    Data        103
    BSS         12
    Persistent  0
    Stack       0

Auto Spaces:
    Space          Size  Autos    Used
    COMRAM          127     25      85
    BANK0           128    119     119
    BANK1           256      0      55
    BANK2           256      0       0
    BANK3           256      0       0
    BANK4           256      0       0
    BANK5           256      0       0

Pointer List with Targets:

    itoa@str	PTR unsigned char  size(2) Largest target is 6
		 -> main@str(BANK0[6]), 

    printf@v	PTR unsigned char  size(2) Largest target is 55
		 -> main@opcoes(BANK0[55]), 

    lcd_str@str	PTR const unsigned char  size(2) Largest target is 17
		 -> STR_12(CODE[14]), STR_11(CODE[13]), STR_10(CODE[16]), STR_9(CODE[14]), 
		 -> STR_8(CODE[14]), STR_7(CODE[12]), STR_6(CODE[8]), STR_5(CODE[17]), 
		 -> STR_4(CODE[12]), STR_3(CODE[9]), STR_2(CODE[13]), STR_1(CODE[13]), 


Critical Paths under _main in COMRAM

    _main->_pwmSet
    _ssdUpdate->_digitalWrite
    _ssdInit->_pinMode
    _pwmSet->___lwdiv
    ___wmul->_adc_amostra
    _pwmInit->_pwmFrequency
    _pwmFrequency->___aldiv
    _printf->_lcdPosition
    _lcd_str->_lcdData
    _lcdInit->_lcdCommand
    _itoa->___lwdiv
    ___lwdiv->___wmul
    _clear->_lcdPosition
    _lcdPosition->_lcdCommand
    _lcdCommand->_digitalWrite
    _Delay2ms->_Delay40us
    _lcdData->_digitalWrite

Critical Paths under _main in BANK0

    None.

Critical Paths under _main in BANK1

    None.

Critical Paths under _main in BANK2

    None.

Critical Paths under _main in BANK3

    None.

Critical Paths under _main in BANK4

    None.

Critical Paths under _main in BANK5

    None.

Call Graph Tables:

 ---------------------------------------------------------------------------------
 (Depth) Function   	        Calls       Base Space   Used Autos Params    Refs
 ---------------------------------------------------------------------------------
 (0) _main                                               119   119      0   50304
                                              0 BANK0    119   119      0
                           _LigarLed
                            ___fladd
                             ___flge
                            ___lwdiv
                             ___wmul
                        _adc_amostra
                              _clear
                               _itoa
                         _kpDebounce
                             _kpInit
                             _kpRead
                         _lcdCommand
                            _lcdData
                            _lcdInit
                        _lcdPosition
                            _lcd_str
                             _printf
                            _pwmInit
                             _pwmSet
                           _ssdDigit
                            _ssdInit
                          _ssdUpdate
                              _tempo
 ---------------------------------------------------------------------------------
 (1) _tempo                                                4     4      0     138
                                              0 COMRAM     4     4      0
 ---------------------------------------------------------------------------------
 (1) _ssdUpdate                                            2     2      0    2572
                                              6 COMRAM     2     2      0
                       _digitalWrite
 ---------------------------------------------------------------------------------
 (1) _ssdInit                                              0     0      0    1352
                            _pinMode
 ---------------------------------------------------------------------------------
 (1) _ssdDigit                                             2     1      1    1088
                                              0 COMRAM     2     1      1
 ---------------------------------------------------------------------------------
 (1) _pwmSet                                               5     5      0    1628
                                             20 COMRAM     5     5      0
                            ___lwdiv
                             ___wmul
 ---------------------------------------------------------------------------------
 (2) ___wmul                                               6     2      4     463
                                              7 COMRAM     6     2      4
                        _adc_amostra (ARG)
 ---------------------------------------------------------------------------------
 (1) _pwmInit                                              0     0      0     550
                       _pwmFrequency
 ---------------------------------------------------------------------------------
 (2) _pwmFrequency                                         2     0      2     550
                                             14 COMRAM     2     0      2
                            ___aldiv
 ---------------------------------------------------------------------------------
 (3) ___aldiv                                             14     6      8     452
                                              0 COMRAM    14     6      8
 ---------------------------------------------------------------------------------
 (1) _printf                                               8     6      2    7334
                                             11 COMRAM     8     6      2
                            _lcdData
                        _lcdPosition
 ---------------------------------------------------------------------------------
 (1) _lcd_str                                              5     3      2    3665
                                              8 COMRAM     5     3      2
                            _lcdData
 ---------------------------------------------------------------------------------
 (1) _lcdInit                                              0     0      0    4243
                           _Delay2ms
                         _lcdCommand
                            _pinMode
 ---------------------------------------------------------------------------------
 (2) _pinMode                                              6     2      4    1352
                                              0 COMRAM     6     2      4
 ---------------------------------------------------------------------------------
 (1) _kpRead                                               2     0      2       0
                                              0 COMRAM     2     0      2
 ---------------------------------------------------------------------------------
 (1) _kpInit                                               0     0      0       0
 ---------------------------------------------------------------------------------
 (1) _kpDebounce                                          10    10      0     315
                                              0 COMRAM    10    10      0
 ---------------------------------------------------------------------------------
 (1) _itoa                                                 4     0      4    2235
                                             20 COMRAM     4     0      4
                            ___lwdiv
                            ___lwmod
 ---------------------------------------------------------------------------------
 (2) ___lwmod                                              5     1      4     767
                                              0 COMRAM     5     1      4
 ---------------------------------------------------------------------------------
 (2) ___lwdiv                                              7     3      4    1074
                                             13 COMRAM     7     3      4
                            ___lwmod (ARG)
                             ___wmul (ARG)
                        _adc_amostra (ARG)
 ---------------------------------------------------------------------------------
 (1) _clear                                               13     5      8    8428
                                             11 COMRAM    13     5      8
                            _lcdData
                        _lcdPosition
 ---------------------------------------------------------------------------------
 (2) _lcdPosition                                          3     2      1    4369
                                              8 COMRAM     3     2      1
                         _lcdCommand
 ---------------------------------------------------------------------------------
 (3) _lcdCommand                                           2     2      0    2799
                                              6 COMRAM     2     2      0
                           _Delay2ms
                          _Delay40us
                       _digitalWrite
 ---------------------------------------------------------------------------------
 (4) _Delay2ms                                             1     1      0      92
                                              1 COMRAM     1     1      0
                          _Delay40us
 ---------------------------------------------------------------------------------
 (2) _lcdData                                              2     2      0    2663
                                              6 COMRAM     2     2      0
                          _Delay40us
                       _digitalWrite
 ---------------------------------------------------------------------------------
 (2) _digitalWrite                                         6     2      4    2572
                                              0 COMRAM     6     2      4
 ---------------------------------------------------------------------------------
 (4) _Delay40us                                            1     1      0      46
                                              0 COMRAM     1     1      0
 ---------------------------------------------------------------------------------
 (1) _adc_amostra                                          7     5      2      22
                                              0 COMRAM     7     5      2
 ---------------------------------------------------------------------------------
 (1) ___flge                                              12     4      8    1094
                                              0 COMRAM    12     4      8
 ---------------------------------------------------------------------------------
 (1) ___fladd                                             16     8      8    2692
                                              0 COMRAM    16     8      8
 ---------------------------------------------------------------------------------
 (1) _LigarLed                                             5     4      1     787
                                              0 COMRAM     5     4      1
 ---------------------------------------------------------------------------------
 Estimated maximum stack depth 4
 ---------------------------------------------------------------------------------

 Call Graph Graphs:

 _main (ROOT)
   _LigarLed
   ___fladd
   ___flge
   ___lwdiv
     ___lwmod (ARG)
     ___wmul (ARG)
       _adc_amostra (ARG)
     _adc_amostra (ARG)
   ___wmul
   _adc_amostra
   _clear
     _lcdData
       _Delay40us
       _digitalWrite
     _lcdPosition
       _lcdCommand
         _Delay2ms
           _Delay40us
         _Delay40us
         _digitalWrite
   _itoa
     ___lwdiv
     ___lwmod
   _kpDebounce
   _kpInit
   _kpRead
   _lcdCommand
   _lcdData
   _lcdInit
     _Delay2ms
     _lcdCommand
     _pinMode
   _lcdPosition
   _lcd_str
     _lcdData
   _printf
     _lcdData
     _lcdPosition
   _pwmInit
     _pwmFrequency
       ___aldiv
   _pwmSet
     ___lwdiv
     ___wmul
   _ssdDigit
   _ssdInit
     _pinMode
   _ssdUpdate
     _digitalWrite
   _tempo

 Address spaces:
Name               Size   Autos  Total    Cost      Usage
BIGRAM             5FF      0       0      17        0.0%
EEDATA             100      0       0       0        0.0%
BITBANK5           100      0       0      16        0.0%
BANK5              100      0       0      14        0.0%
BITBANK4           100      0       0      12        0.0%
BANK4              100      0       0      13        0.0%
BITBANK3           100      0       0      10        0.0%
BANK3              100      0       0      11        0.0%
BITBANK2           100      0       0       8        0.0%
BANK2              100      0       0       9        0.0%
BITBANK1           100      0       0       6        0.0%
BANK1              100      0      37       7       21.5%
BITBANK0            80      0       0       4        0.0%
BANK0               80     77      77       5       93.0%
BITCOMRAM           7F      0       0       0        0.0%
COMRAM              7F     19      55       1       66.9%
BITSFR               0      0       0     200        0.0%
SFR                  0      0       0     200        0.0%
STACK                0      0       0       2        0.0%
NULL                 0      0       0       0        0.0%
ABS                  0      0     103      15        0.0%
DATA                 0      0     103       3        0.0%
CODE                 0      0       0       0        0.0%


Microchip Technology PIC18 Macro Assembler V2.32 build 20210201212658 
Symbol Table                                                                                   Sun Aug 01 16:06:51 2021

                     l42 174A                       l76 14FC                       l89 25B2  
                     _v0 0053                       _v1 0052                       _v2 0051  
                     _v3 0050      ___wmul@multiplicand 003A     __size_of_adc_amostra 0090  
                    l112 25BC                      l130 2576                      l107 18A4  
                    l140 240A                      l108 18BC                      l125 25A8  
                    l109 18C4                      l143 209A                      l304 217C  
                    l137 2022                      l314 24A6                      l149 245A  
                    l271 0D54                      l176 230A                      l370 1EDE  
                    l186 1B72                      l274 0DE8                      l347 1A20  
                    l373 1F1A                      l285 2202                      l189 23B6  
                    l286 2218                      l367 1EDC                      l287 2230  
                    l295 1FA4                      l376 1D86                      l392 255A  
                    l289 224E                      l299 2118                      l395 2590  
                    l477 1C7E                      l389 21E8                      l398 2534  
                    l663 1E44                      l906 22B2                      l668 1E8A  
                    l926 0FDE                      l943 10F8                      l935 12AE  
                    l927 0FCC                      l952 11C8                      l928 0F92  
                    l953 11B6                      l896 210E                      l889 2106  
                    l899 22AA                      _PR2 000FCB                      wreg 000FE8  
           printf@coluna 0041              main@desenho 0080                     l3001 0F1C  
                   l3003 0F20                     l3011 0F30                     l3021 0FA0  
                   l3013 0F34                     l3005 0F24                     l2301 15A4  
                   l3103 11D8                     l3111 122E                     l3031 0FCA  
                   l3023 0FAC                     l3015 0F5E                     l3007 0F28  
                   l2311 163C                     l2303 15C4                     l3121 1280  
                   l3113 123E                     l3105 11E4                     l3041 1020  
                   l3033 0FEC                     l3025 0FB0                     l3017 0F7A  
                   l3009 0F2C                     l2321 16D6                     l2313 165E  
                   l2305 15E6                     l2401 1C5E                     l3201 07D6  
                   l3131 129E                     l3123 1286                     l3115 124E  
                   l3107 11F2                     l3051 105A                     l3043 102E  
                   l3035 0FFC                     l3027 0FBE                     l3019 0F8A  
                   l2323 16F2                     l2315 167A                     l2307 1602  
                   l2411 12DE                     l2403 1C6E                     l3203 07F4  
                   l3125 1288                     l3117 126E                     l3109 122C  
                   l3061 10C6                     l3053 105C                     l3045 103C  
                   l3029 0FC0                     l3141 1DF4                     l2325 170C  
                   l2317 1694                     l2309 161C                     l2341 1FA8  
                   l2501 20FA                     l2421 1372                     l2413 12FE  
                   l3301 0BD8                     l3221 08BC                     l3213 0856  
                   l3205 0800                     l3127 128E                     l3119 1272  
                   l3071 111E                     l3063 10C8                     l3055 1066  
                   l3047 1048                     l3039 1010                     l3151 1E82  
                   l3143 1E04                     l3135 1D88                     l2327 172C  
                   l2319 16B4                     l2335 2560                     l2351 1FDC  
                   l2343 1FAC                     l2503 2100                     l2511 2272  
                   l2431 1410                     l2423 1398                     l2415 1320  
                   l2407 12B0                     l3311 0C2E                     l3215 087E  
                   l3223 08EE                     l3207 0810                     l3129 129C  
                   l3081 114C                     l3065 10D8                     l3049 104C  
                   l3057 106C                     l3153 1E88                     l3145 1E12  
                   l3137 1DB6                     l2337 2564                     l2329 255C  
                   l2361 201E                     l2353 1FF0                     l2345 1FB0  
                   l2513 2280                     l2505 2250                     l2521 25AA  
                   l2441 14A4                     l2433 142C                     l2425 13B4  
                   l2417 133C                     l2409 12CC                     l2601 2078  
                   l3321 0C62                     l3313 0C38                     l3305 0BE0  
                   l3241 09B2                     l3233 094C                     l3217 0882  
                   l3209 0820                     l3225 08F8                     l3161 06CA  
                   l3083 115A                     l3075 1132                     l3091 1178  
                   l3059 1092                     l3067 10E8                     l3147 1E24  
                   l3139 1DC6                     l2291 151A                     l2451 23C2  
                   l2339 2566                     l2355 1FF4                     l2347 1FC4  
                   l2515 2296                     l2507 2262                     l2523 174C  
                   l2443 14B6                     l2435 143E                     l2427 13C6  
                   l2419 134E                     l2611 2094                     l2603 207C  
                   l2371 1B9A                     l2363 1B74                     l3403 0DA6  
                   l3331 0C9E                     l3323 0C68                     l3315 0C44  
                   l3307 0C0E                     l3235 0974                     l3243 09E4  
                   l3227 0906                     l3219 0888                     l3171 06F4  
                   l3163 06E4                     l3085 1162                     l3077 113C  
                   l3069 110E                     l3093 1186                     l3149 1E32  
                   l2285 2596                     l2293 152C                     l2461 2406  
                   l2453 23D6                     l2357 2006                     l2349 1FC8  
                   l2701 2132                     l2517 229E                     l2509 226A  
                   l2541 17A2                     l2533 1758                     l2525 1750  
                   l2445 14DA                     l2437 1462                     l2429 13EA  
                   l2605 2082                     l2613 240C                     l2381 1BE2  
                   l2373 1BA8                     l2365 1B78                     l2621 22B6  
                   l3405 0DDC                     l3341 0CB4                     l3333 0CA0  
                   l3317 0C5A                     l3325 0C72                     l3309 0C1A  
                   l3261 0AA8                     l3253 0A42                     l3237 0978  
                   l3229 0916                     l3245 09EE                     l3181 072A  
                   l3173 06FE                     l3165 06E8                     l3157 06AE  
                   l3095 118A                     l3087 1166                     l3079 114A  
                   l2287 2598                     l2279 2592                     l2295 154C  
                   l2455 23DA                     l2447 23BA                     l2359 2016  
                   l2471 2242                     l2463 21EC                     l2703 2156  
                   l2519 22A4                     l2551 17C6                     l2543 17A6  
                   l2535 179A                     l2527 1754                     l2439 1488  
                   l2607 2088                     l2615 2414                     l2391 1C2C  
                   l2383 1BEA                     l2375 1BB8                     l2367 1B86  
                   l2631 22F0                     l2623 22C6                     l3351 0CD6  
                   l3343 0CBA                     l3335 0CA6                     l3327 0C7C  
                   l3319 0C5C                     l3271 0B20                     l3255 0A6A  
                   l3263 0ADA                     l3247 09FC                     l3239 097E  
                   l3191 0778                     l3183 073A                     l3175 070A  
                   l3167 06EC                     l3159 06C0                     l3097 1198  
                   l3089 1176                     l2297 156E                     l2289 14FE  
                   l2457 23EE                     l2449 23BE                     l2473 2248  
                   l2465 21FC                     l2705 2158                     l2561 1868  
                   l2553 17F2                     l2545 17C2                     l2609 208E  
                   l2617 2430                     l2721 1F7C                     l2713 1F28  
                   l2393 1C3C                     l2385 1BF6                     l2377 1BBC  
                   l2369 1B96                     l2633 22F4                     l2625 22CA  
                   l2641 1A3A                     l3361 0CF2                     l3353 0CDC  
                   l3337 0CAC                     l3329 0C88                     l3281 0B52  
                   l3273 0B2A                     l3257 0A6E                     l3249 0A0C  
                   l3265 0AE4                     l3185 073E                     l3193 0780  
                   l3177 0714                     l3169 06F0                     l2811 18F4  
                   l2803 18DE                     l3099 11AE                     l2299 158A  
                   l2459 2402                     l2467 2212                     l2491 20C6  
                   l2483 209C                     l2571 189C                     l2563 186A  
                   l2555 1822                     l2619 2432                     l2715 1F46  
                   l2723 1F80                     l2707 1F1C                     l2395 1C3E  
                   l2387 1C04                     l2379 1BCC                     l2475 2536  
                   l2635 2306                     l2627 22DA                     l2651 1AA4  
                   l2643 1A4E                     l2731 2466                     l3371 0D2A  
                   l3363 0D16                     l3347 0CCE                     l3339 0CB2  
                   l3291 0BB6                     l3275 0B36                     l3267 0AF8  
                   l3259 0A74                     l3195 0794                     l3187 075C  
                   l3179 0720                     l2901 19BE                     l2821 190A  
                   l2813 18F6                     l2805 18F0                     l2469 222A  
                   l2493 20D4                     l2485 20A4                     l2573 18B4  
                   l2565 187A                     l2557 1856                     l2581 204C  
                   l2725 1F92                     l2717 1F70                     l2397 1C48  
                   l2389 1C0E                     l2477 2510                     l2629 22DE  
                   l2661 1AEE                     l2653 1AAC                     l2645 1A62  
                   l2637 1A22                     l3381 0D4C                     l3365 0D1C  
                   l3349 0CD0                     l3357 0CE4                     l3293 0BBE  
                   l3285 0B66                     l3277 0B40                     l3269 0AFC  
                   l3197 07C2                     l3189 0768                     l2911 19D4  
                   l2903 19C0                     l2831 1920                     l2823 190C  
                   l2815 1906                     l2495 20DA                     l2487 20B6  
                   l2575 18C0                     l2567 1892                     l2559 1858  
                   l2591 2060                     l2583 2050                     l2727 1F94  
                   l2719 1F72                     l2399 1C4E                     l2479 252C  
                   l3447 1B4C                     l2663 1B02                     l2655 1AC0  
                   l2647 1A7E                     l2639 1A26                     l2751 2492  
                   l2743 246E                     l3391 0D72                     l3375 0D3E  
                   l3367 0D22                     l3359 0CE8                     l3295 0BC4  
                   l3287 0B9A                     l3279 0B4C                     l3199 07D2  
                   l2921 19EA                     l2913 19D6                     l2905 19D0  
                   l2841 193A                     l2833 1922                     l2825 191C  
                   l3449 1EBE                     l2761 1EA2                     l2497 20F0  
                   l2489 20BE                     l2569 1898                     l2577 25B4  
                   l2593 2064                     l2585 2054                     l2681 2362  
                   l2665 1B0A                     l2657 1AD4                     l2649 1A90  
                   l2745 2470                     l2737 246A                     l2753 2494  
                   l2729 245E                     l3393 0D78                     l3385 0D56  
                   l3377 0D40                     l3369 0D24                     l3297 0BCC  
                   l3289 0BAC                     l2931 1A10                     l2923 19EC  
                   l2915 19E6                     l2851 1950                     l2843 193C  
                   l2835 1936                     l2755 1E8E                     l2499 20F8  
                   l2595 206A                     l2587 2058                     l2579 2024  
                   l2691 2580                     l2683 23B2                     l2667 1B1C  
                   l2659 1ADC                     l2675 1B38                     l2747 2480  
                   l3387 0D60                     l3379 0D46                     l3299 0BD2  
                   l2861 1966                     l2853 1952                     l2845 194C  
                   l2925 19FC                     l2941 0E1C                     l2933 0DF0  
                   l2757 1E92                     l2765 1EAA                     l2597 206E  
                   l2589 205C                     l2693 2584                     l2685 2578  
                   l2781 219E                     l2669 1B30                     l2749 2482  
                   l3397 0D8C                     l3389 0D6C                     l2927 19FE  
                   l2871 197C                     l2863 1968                     l2855 1962  
                   l2951 0E56                     l2943 0E2C                     l2935 0DFC  
                   l2767 1EEC                     l2759 1E9A                     l2695 2110  
                   l2775 1C80                     l2599 2072                     l2687 257A  
                   l2783 21BA                     l3399 0D9E                     l2929 1A0E  
                   l2881 1992                     l2873 197E                     l2865 1978  
                   l2961 0E84                     l2953 0E5C                     l2945 0E3C  
                   l2937 0E0A                     l2697 2120                     l2777 1D76  
                   l2689 257E                     l2785 21C2                     l2891 19A8  
                   l2883 1994                     l2875 198E                     l2795 18D0  
                   l2971 0EB8                     l2963 0E86                     l2955 0E6E  
                   l2947 0E3E                     l2939 0E0C                     l2699 2130  
                   l2787 21DA                     l2779 2180                     l2893 19AA  
                   l2885 19A4                     l2797 18DA                     l2789 18C8  
                   l2981 0EF4                     l2965 0E96                     l2973 0EC0  
                   l2957 0E70                     l2949 0E46                     l2895 19BA  
                   l2991 0F08                     l2983 0EF8                     l2975 0ED0  
                   l2967 0EA6                     l2959 0E76                     l2993 0F0C  
                   l2985 0EFC                     l2977 0EE2                     l2969 0EB6  
                   l2995 0F10                     l2987 0F00                     l2979 0EF0  
                   l2997 0F14                     l2989 0F04                     l2999 0F18  
                   STR_1 065C                     STR_2 0676                     STR_3 069B  
                   STR_4 0683                     STR_5 0611                     STR_6 06A4  
                   STR_7 068F                     STR_8 064E                     STR_9 0640  
                   u2000 1B86                     u2001 1B82                     u2010 1BA8  
                   u2011 1BA4                     u2100 133C                     u2020 1BE2  
                   u2101 1338                     u2021 1BDE                     u2110 134E  
                   u2030 1C04                     u2111 134A                     u2031 1C00  
                   u3000 111E                     u2040 1C2C                     u3001 111A  
                   u2041 1C28                     u3010 114A                     u2050 1C5E  
                   u3011 1146                     u2051 1C5A                     u3100 122C  
                   u3020 115A                     u2300 20B6                     u2220 14A4  
                   u2204 1454                     u2140 13B4                     u2124 1364  
                   u2060 12CC                     u3101 1228                     u3021 1156  
                   u2301 20B2                     u2221 14A0                     u2205 1450  
                   u2141 13B0                     u2125 1360                     u2061 12C8  
                   u3110 123E                     u3030 1176                     u2310 20D4  
                   u2230 14B6                     u2214 1478                     u2150 13C6  
                   u2134 1388                     u2070 12DE                     u3111 123A  
                   u3031 1172                     u2311 20D0                     u2231 14B2  
                   u2215 1474                     u2151 13C2                     u2135 1384  
                   u2071 12DA                     u3120 124E                     u3040 1186  
                   u3200 1E82                     u2320 20F0                     u2400 17F2  
                   u3121 124A                     u3041 1182                     u3201 1E7E  
                   u2321 20EC                     u2401 17EE                     u3130 126E  
                   u3050 1198                     u2330 2262                     u3131 126A  
                   u3051 1194                     u2331 225E                     u3211 06B8  
                   u3140 1280                     u3060 11AE                     u2260 21FC  
                   u2340 2280                     u2244 14CC                     u2180 142C  
                   u2164 13DC                     u2084 12F0                     u2500 22F0  
                   u3300 0906                     u3141 127C                     u3061 11AA  
                   u2261 21F8                     u2341 227C                     u2245 14C8  
                   u2181 1428                     u2165 13D8                     u2085 12EC  
                   u2501 22EC                     u3301 0902                     u3221 06DC  
                   u3150 129C                     u3070 11C4                     u2270 2212  
                   u2350 2296                     u2430 1868                     u2414 1810  
                   u2254 14F0                     u2190 143E                     u2174 1400  
                   u2094 1310                     u2510 2306                     u3310 0948  
                   u3230 075C                     u3151 1298                     u3071 11C0  
                   u2271 220E                     u2351 2292                     u2431 1864  
                   u2415 180A                     u2255 14EC                     u2191 143A  
                   u2175 13FC                     u2095 130C                     u2511 2302  
                   u3311 0944                     u3231 0758                     u3080 11D8  
                   u3160 1DB6                     u2600 1EEC                     u2280 222A  
                   u2520 2156                     u2440 187A                     u2424 1840  
                   u3400 0D3A                     u3320 09E4                     u3240 0778  
                   u3081 11D4                     u3161 1DB2                     u2601 1EE8  
                   u2281 2226                     u2521 2152                     u2441 1876  
                   u2425 183A                     u3401 0D36                     u3321 09E0  
                   u3241 0774                     u3090 11F2                     u3170 1DF4  
                   u1810 158A                     u2290 2242                     u2530 217C  
                   u2450 1892                     u3410 0D88                     u3330 09FC  
                   u3250 0794                     u3091 11EE                     u3171 1DF0  
                   u1811 1586                     u2291 223E                     u2531 2178  
                   u2451 188E                     u3411 0D84                     u3331 09F8  
                   u3251 0790                     u2700 19A4                     u2620 18F0  
                   u3180 1E12                     u1900 1694                     u1820 15A4  
                   u1804 155E                     u2460 18B4                     u2380 17C2  
                   u2364 176E                     u2540 1F46                     u3340 0A3E  
                   u3260 07F4                     u2701 19A0                     u2621 18EC  
                   u3181 1E0E                     u1901 1690                     u1821 15A0  
                   u1805 155A                     u2461 18B0                     u2381 17BE  
                   u2365 176A                     u2541 1F42                     u3341 0A3A  
                   u3261 07F0                     u2710 19BA                     u2630 1906  
                   u3190 1E32                     u2374 178E                     u2470 245A  
                   u2550 1F70                     u3350 0ADA                     u3270 0810  
                   u2711 19B6                     u2631 1902                     u3191 1E2E  
                   u2615 1EF4                     u2375 178A                     u2471 2456  
                   u2551 1F6C                     u3351 0AD6                     u3271 080C  
                   u2720 19D0                     u2640 191C                     u2800 0E6E  
                   u1760 25A8                     u2560 1FA4                     u2480 22C6  
                   u3360 0AF8                     u3280 0852                     u2721 19CC  
                   u2641 1918                     u2801 0E6A                     u1761 25A4  
                   u2561 1FA0                     u2481 22C2                     u3361 0AF4  
                   u3281 084E                     u2730 19E6                     u2650 1932  
                   u2810 0E84                     u1930 16F2                     u1914 16A6  
                   u1850 1602                     u1834 15B6                     u1770 151A  
                   u2394 17D8                     u2490 22DA                     u2570 2480  
                   u3370 0B62                     u3290 08EE                     u2731 19E2  
                   u2651 192E                     u2811 0E80                     u1931 16EE  
                   u1915 16A2                     u1851 15FE                     u1835 15B2  
                   u1771 1516                     u2395 17D4                     u2491 22D6  
                   u2571 247C                     u3371 0B5E                     u3291 08EA  
                   u2740 19FC                     u2660 194C                     u2900 0FBE  
                   u2820 0E96                     u1940 170C                     u1924 16C6  
                   u1860 161C                     u1844 15D6                     u1780 152C  
                   u2580 2492                     u3380 0C2E                     u2741 19F8  
                   u2661 1948                     u2901 0FBA                     u2821 0E92  
                   u1941 1708                     u1925 16C2                     u1861 1618  
                   u1845 15D2                     u1781 1528                     u2581 248E  
                   u3381 0C2A                     u2750 1A0E                     u2670 1962  
                   u2910 0FDE                     u2830 0EA6                     u2590 24A6  
                   u3390 0CCA                     u2751 1A0A                     u2671 195E  
                   u2911 0FDA                     u2831 0EA2                     u2591 24A2  
                   u3391 0CC6                     u2760 1A20                     u2680 1978  
                   u2920 0FEC                     u2840 0EE2                     u2761 1A1C  
                   u2681 1974                     u2921 0FE8                     u2841 0EDE  
                   u2690 198E                     u2930 0FFC                     u2850 0EF0  
                   u2770 0E0A                     u1954 171E                     u1890 167A  
                   u1874 162E                     u1794 153E                     u1970 2576  
                   u2691 198A                     u2931 0FF8                     u2851 0EEC  
                   u2771 0E06                     u1955 171A                     u1891 1676  
                   u1875 162A                     u1795 153A                     u1971 2572  
                   u2940 102E                     u2860 0F5E                     u2780 0E1C  
                   u1964 173E                     u1884 164E                     u1980 2006  
                   u2941 102A                     u2861 0F5A                     u2781 0E18  
                   u1965 173A                     u1885 164A                     u1981 2002  
                   u2950 103C                     u2870 0F76                     u2790 0E2C  
                   u1990 2016                     u2951 1038                     u2871 0F70  
                   u2791 0E28                     u1991 2012                     u2960 105A  
                   u2880 0F78                     u2961 1056                     u2970 1092  
                   u2890 0FA0                     u2971 108E                     u2891 0F9C  
                   u2980 10D8                     u2981 10D4                     u2990 110E  
                   u2991 110A                     _main 06AE                     _itoa 1C80  
                   fsr2h 000FDA                     indf2 000FDF                     fsr1l 000FE1  
                   fsr2l 000FD9              LigarLed@num 0032              LigarLed@pot 0031  
                   prodh 000FF4                     prodl 000FF3                     start 0000  
           ___param_bank 000000           pwmSet@porcento 0047          __end_of___aldiv 1C80  
        __end_of___fladd 12B0                    ?_main 0031                    ?_itoa 0045  
                  STR_10 0622                    STR_11 0669                    STR_12 0632  
                  _T2CON 000FCA          __end_of___lwdiv 2110          __end_of___lwmod 22B4  
                  _PORTA 000F80                    _PORTB 000F81                    _PORTC 000F82  
                  _PORTD 000F83                    _PORTE 000F84                    _TRISA 000F92  
                  _TRISB 000F93                    _TRISC 000F94                    _TRISD 000F95  
                  _TRISE 000F96          __end_of_lcdData 240C          __end_of_lcdInit 209C  
        __end_of_lcd_str 245C                    _clear 2110          __end_of_pinMode 14FE  
                  _valor 004E                    _tempo 245C             main@tempoSSD 00F2  
                  main@i 00F6                    tablat 000FF5          __end_of_ssdInit 23B8  
        __end_of_pwmInit 2592                    plusw1 000FE3                    plusw2 000FDB  
                  status 000FD8         __end_of_Delay2ms 2578     __end_of_digitalWrite 174C  
        __initialization 230C             __end_of_main 0DF0             __end_of_itoa 1D88  
     __size_of_Delay40us 0018         __end_of_LigarLed 1A22                   ??_main 004A  
                 ??_itoa 0049            __activetblptr 000002                   ?_clear 003C  
                 _ADCON0 000FC2                   _ADCON1 000FC1                   _ADCON2 000FC0  
                 _ADRESH 000FC4                   _ADRESL 000FC3                   _CCPR1L 000FBE  
                 ?_tempo 0031     __size_of_lcdPosition 0066        lcdPosition@coluna 0039  
                 ___flge 1D88                ??___aldiv 0039                ??___fladd 0039  
                 ___wmul 2510                ??___lwdiv 0042                ??___lwmod 0035  
                 _kpInit 25B4                   _kpRead 25AA                   clear@i 0047  
                 clear@j 0048                   clear_0 2352                ??_lcdData 0037  
                 isa$std 000001                ??_lcdInit 0039                   _pwmSet 217E  
                 _printf 1F1C                ??_lcd_str 003B         __end_of_ssdDigit 230C  
           __pdataCOMRAM 0001                ??_pinMode 0035             __mediumconst 0000  
                 tempo@i 0032                   tempo@j 0033                   tempo@k 0034  
                 tblptrh 000FF7                   tblptrl 000FF6                   tempo@x 0031  
                 tblptru 000FF8                ??_ssdInit 0037                ??_pwmInit 0041  
      __end_of_Delay40us 25AA               ___flge@ff1 0031               ___flge@ff2 0035  
             __accesstop 0080  __end_of__initialization 2358            ___rparam_used 000001  
            pinMode@type 0033           __pcstackCOMRAM 0031             __pidataBANK1 24A8  
          __end_of_clear 217E            __end_of_tempo 24A8                ?_Delay2ms 0031  
                ??_clear 0044                  ??_tempo 0031                ?_LigarLed 0031  
  __size_of_digitalWrite 024E                  ?___flge 0031               _lcdCommand 1FA6  
                ?___wmul 0038            ??_adc_amostra 0033                  ?_kpInit 0031  
                ?_kpRead 0031                  _CCP1CON 000FBD               _kpDebounce 174C  
                ?_pwmSet 0031                  ?_printf 003C       __size_of_ssdUpdate 0152  
             ??_Delay2ms 0032             _digitalWrite 14FE               ??_LigarLed 0032  
                __Hparam 0000                  __Lparam 0000                ?_ssdDigit 0031  
        kpDebounce@old_D 0036          kpDebounce@tempo 0055                  ___aldiv 1B74  
        __size_of___flge 0104                  ___fladd 0DF0          __size_of___wmul 0026  
                ___lwdiv 209C                  ___lwmod 2250             __psmallconst 0600  
        __size_of_kpInit 000A          __size_of_kpRead 000A              ssdDigit@val 0032  
            ssdDigit@pos 0031                  __pcinit 230C                  _lcdData 23B8  
                __ramtop 0600                  _lcdInit 2024                  __ptext0 06AE  
                __ptext1 245C                  __ptext2 1A22                  __ptext3 2362  
                __ptext4 22B4                  __ptext5 217E                  __ptext6 2510  
                __ptext7 2578                  __ptext8 2536                  __ptext9 1B74  
        __size_of_pwmSet 006C          __size_of_printf 008A                  _display 0054  
                _lcd_str 240C      __end_of_adc_amostra 1F1C                  _pinMode 12B0  
                clear@xf 003E                  clear@yf 0042                  clear@xi 003C  
                clear@yi 0040         ___aldiv@dividend 0031                  _ssdInit 2362  
                _pwmInit 2578                Delay2ms@i 0032                  main@aux 00EE  
                main@tmp 00ED                  main@str 00E7      kpDebounce@valorNovo 004C  
   end_of_initialization 2358                  itoa@val 0045            __Lmediumconst 0000  
                itoa@str 0047            ?_pwmFrequency 003F        __end_of_ssdUpdate 1B74  
             ??_ssdDigit 0032                  printf@i 0043                  printf@v 003C  
       ___aldiv@quotient 003B                  postdec1 000FE5              ?_lcdCommand 0031  
                postinc0 000FEE                  postinc2 000FDE              ?_kpDebounce 0031  
              _PORTCbits 000F82                _PORTEbits 000F84           _valor@ssd$F167 0601  
            ___fladd@grs 0040                _TRISCbits 000F94                _TRISEbits 000F96  
          ??_lcdPosition 003A                LigarLed@a 0034                LigarLed@i 0033  
              LigarLed@j 0035           ??_pwmFrequency 0041              printf@linha 0042  
              _Delay40us 2592               main@opcoes 00B0               lcd_str@str 0039  
         __end_of___flge 1E8C              _adc_amostra 1E8C           __end_of___wmul 2536  
          __pidataCOMRAM 24DF           __end_of_kpInit 25BE           __end_of_kpRead 25B4  
 __end_of_valor@ssd$F167 0611           __end_of_pwmSet 21EA           __end_of_printf 1FA6  
    start_initialization 230C        __size_of_Delay2ms 001C      __size_of_lcdCommand 007E  
    __size_of_kpDebounce 017A               ?_Delay40us 0031        __size_of_LigarLed 015C  
    __end_of_lcdPosition 2250         lcdPosition@linha 003B                 ??___flge 0039  
               ??___wmul 003C                 ??_kpInit 0031                 ??_kpRead 0033  
            __pdataBANK1 0100                 ??_pwmSet 0045                 ??_printf 003E  
              ___fladd@a 0035                ___fladd@b 0031              __pbssCOMRAM 004A  
          __pcstackBANK0 0080               pinMode@pin 0031         ___lwdiv@dividend 003E  
               ?___aldiv 0031                 ?___fladd 0031        __size_of_ssdDigit 0058  
               ?___lwdiv 003E                 ?___lwmod 0031                 ?_lcdData 0031  
               ?_lcdInit 0031                 ?_lcd_str 0039     __end_of_pwmFrequency 255C  
          lcdCommand@cmd 0038              __smallconst 0600                 ?_pinMode 0031  
               ?_ssdInit 0031                 ?_pwmInit 0031         ___lwdiv@quotient 0042  
         __size_of_clear 006E           __size_of_tempo 004C              _lcdPosition 21EA  
       pwmFrequency@freq 003F          ___aldiv@divisor 0035          ___aldiv@counter 0039  
            ??_Delay40us 0031           ___wmul@product 003C             ??_lcdCommand 0037  
              main@F2602 0100                main@F2608 0001                _ssdUpdate 1A22  
           ??_kpDebounce 0031               _ADCON0bits 000FC2        ___wmul@multiplier 0038  
        lcdCommand@old_D 0037    kpDebounce@valorAntigo 004A                 _Delay2ms 255C  
              main@tecla 00F0                copy_data0 2320                copy_data1 2340  
     __end_of_lcdCommand 2024                 _LigarLed 18C6             lcdData@old_D 0038  
           lcdData@valor 0037       __end_of_kpDebounce 18C6                 __Hrparam 0000  
               __Lrparam 0000               ?_ssdUpdate 0031             ?_adc_amostra 0031  
       __size_of___aldiv 010C         __size_of___fladd 04C0         __size_of___lwdiv 0074  
       __size_of___lwmod 0064         __size_of_lcdData 0054         __size_of_lcdInit 0078  
       __size_of_lcd_str 0050         __size_of_pinMode 024E          ___lwdiv@divisor 0040  
        ___lwdiv@counter 0044                 __ptext10 1F1C                 __ptext11 240C  
               __ptext20 2110                 __ptext12 2024                 __ptext21 21EA  
               __ptext13 12B0                 __ptext30 18C6                 __ptext22 1FA6  
               __ptext14 25AA                 __ptext23 255C                 __ptext15 25B4  
               __ptext24 23B8                 __ptext16 174C                 __ptext25 14FE  
               __ptext17 1C80                 __ptext26 2592                 __ptext18 2250  
               __ptext27 1E8C                 __ptext19 209C                 __ptext28 1D88  
               __ptext29 0DF0         __size_of_ssdInit 0056         __size_of_pwmInit 001A  
          __size_of_main 0742            __size_of_itoa 0108               Delay40us@i 0031  
               _ssdDigit 22B4                 isa$xinst 000000    __size_of_pwmFrequency 0026  
              pwmSet@val 0048                 lcd_str@i 003D           lcdPosition@aux 003A  
          ?_digitalWrite 0031        digitalWrite@value 0033         ___lwmod@dividend 0031  
           _pwmFrequency 2536              ??_ssdUpdate 0037          ___lwmod@divisor 0033  
            kpDebounce@i 003A              kpDebounce@j 0039              kpDebounce@k 0037  
        ___lwmod@counter 0035           ??_digitalWrite 0035         adc_amostra@canal 0037  
           ___aldiv@sign 003A            ___fladd@signs 003D             ?_lcdPosition 0039  
        digitalWrite@pin 0031             ___fladd@aexp 003E             ___fladd@bexp 003F  
